Archive member included because of file (symbol)

d:/program files (x86)/microchip/xc32/v1.30/bin/../lib/gcc/pic32mx/4.5.2/../../../../pic32mx/lib\libmchp_peripheral.a(open_core_timer_lib.o)
                              build/default/production/_ext/1218090624/init.o (OpenCoreTimer)
d:/program files (x86)/microchip/xc32/v1.30/bin/../lib/gcc/pic32mx/4.5.2/../../../../pic32mx/lib\libmchp_peripheral.a(update_core_timer_lib.o)
                              build/default/production/_ext/1218090624/init.o (UpdateCoreTimer)
d:/program files (x86)/microchip/xc32/v1.30/bin/../lib/gcc/pic32mx/4.5.2/../../../../pic32mx/lib\libmchp_peripheral_32MX795F512L.a(pcache.o)
                              build/default/production/_ext/1218090624/init.o (CheKseg0CacheOn)
d:/program files (x86)/microchip/xc32/v1.30/bin/../lib/gcc/pic32mx/4.5.2/../../../../pic32mx/lib\libmchp_peripheral_32MX795F512L.a(int_configure_system_lib.o)
                              build/default/production/_ext/1218090624/init.o (INTConfigureSystem)
d:/program files (x86)/microchip/xc32/v1.30/bin/../lib/gcc/pic32mx/4.5.2/../../../../pic32mx/lib\libmchp_peripheral_32MX795F512L.a(int_enable_interrupts_lib.o)
                              build/default/production/_ext/1218090624/init.o (INTEnableInterrupts)
d:/program files (x86)/microchip/xc32/v1.30/bin/../lib/gcc/pic32mx/4.5.2/../../../../pic32mx/lib\libmchp_peripheral_32MX795F512L.a(int_disable_interrupts_lib.o)
                              build/default/production/_ext/1218090624/init.o (INTDisableInterrupts)
d:/program files (x86)/microchip/xc32/v1.30/bin/../lib/gcc/pic32mx/4.5.2/../../../../pic32mx/lib\libmchp_peripheral_32MX795F512L.a(int_restore_interrupts_lib.o)
                              build/default/production/_ext/1218090624/init.o (INTRestoreInterrupts)
d:/program files (x86)/microchip/xc32/v1.30/bin/../lib/gcc/pic32mx/4.5.2/../../../../pic32mx/lib\libmchp_peripheral_32MX795F512L.a(int_tbl_lib.o)
                              build/default/production/_ext/1246622842/company.o (INTClearFlag)
d:/program files (x86)/microchip/xc32/v1.30/bin/../lib/gcc/pic32mx/4.5.2/../../../../pic32mx/lib\libmchp_peripheral_32MX795F512L.a(port_set_pins_digital_in_lib.o)
                              build/default/production/_ext/1218090624/init.o (PORTSetPinsDigitalIn)
d:/program files (x86)/microchip/xc32/v1.30/bin/../lib/gcc/pic32mx/4.5.2/../../../../pic32mx/lib\libmchp_peripheral_32MX795F512L.a(port_set_pins_digital_out_lib.o)
                              build/default/production/_ext/1246622842/company.o (PORTSetPinsDigitalOut)
d:/program files (x86)/microchip/xc32/v1.30/bin/../lib/gcc/pic32mx/4.5.2/../../../../pic32mx/lib\libmchp_peripheral_32MX795F512L.a(_ports_tbl_libp.o)
                              d:/program files (x86)/microchip/xc32/v1.30/bin/../lib/gcc/pic32mx/4.5.2/../../../../pic32mx/lib\libmchp_peripheral_32MX795F512L.a(port_set_pins_digital_in_lib.o) (PortRegTbl)
d:/program files (x86)/microchip/xc32/v1.30/bin/../lib/gcc/pic32mx/4.5.2/../../../../pic32mx/lib\libmchp_peripheral_32MX795F512L.a(uart_lib.o)
                              build/default/production/_ext/1246622842/company.o (UARTEnable)
d:/program files (x86)/microchip/xc32/v1.30/bin/../lib/gcc/pic32mx/4.5.2/../../../../pic32mx/lib\libmchp_peripheral_32MX795F512L.a(idle_i2c2_lib_legacy.o)
                              build/default/production/_ext/1246622842/24lcxxx.o (IdleI2C2)
d:/program files (x86)/microchip/xc32/v1.30/bin/../lib/gcc/pic32mx/4.5.2/../../../../pic32mx/lib\libmchp_peripheral_32MX795F512L.a(master_read_i2c2_lib_legacy.o)
                              build/default/production/_ext/1246622842/24lcxxx.o (MasterReadI2C2)
d:/program files (x86)/microchip/xc32/v1.30/bin/../lib/gcc/pic32mx/4.5.2/../../../../pic32mx/lib\libmchp_peripheral_32MX795F512L.a(master_write_i2c2_lib_legacy.o)
                              build/default/production/_ext/1246622842/24lcxxx.o (MasterWriteI2C2)
d:/program files (x86)/microchip/xc32/v1.30/bin/../lib/gcc/pic32mx/4.5.2/../../../../pic32mx/lib\libmchp_peripheral_32MX795F512L.a(I2CBusIsIdle.o)
                              build/default/production/_ext/1246622842/iic.o (I2CBusIsIdle)
d:/program files (x86)/microchip/xc32/v1.30/bin/../lib/gcc/pic32mx/4.5.2/../../../../pic32mx/lib\libmchp_peripheral_32MX795F512L.a(I2CByteWasAcknowledged.o)
                              build/default/production/_ext/1246622842/iic.o (I2CByteWasAcknowledged)
d:/program files (x86)/microchip/xc32/v1.30/bin/../lib/gcc/pic32mx/4.5.2/../../../../pic32mx/lib\libmchp_peripheral_32MX795F512L.a(I2CConfigure.o)
                              build/default/production/_ext/1246622842/iic.o (I2CConfigure)
d:/program files (x86)/microchip/xc32/v1.30/bin/../lib/gcc/pic32mx/4.5.2/../../../../pic32mx/lib\libmchp_peripheral_32MX795F512L.a(I2CEnable.o)
                              build/default/production/_ext/1246622842/clock.o (I2CEnable)
d:/program files (x86)/microchip/xc32/v1.30/bin/../lib/gcc/pic32mx/4.5.2/../../../../pic32mx/lib\libmchp_peripheral_32MX795F512L.a(I2CGetByte.o)
                              build/default/production/_ext/1246622842/iic.o (I2CGetByte)
d:/program files (x86)/microchip/xc32/v1.30/bin/../lib/gcc/pic32mx/4.5.2/../../../../pic32mx/lib\libmchp_peripheral_32MX795F512L.a(I2CGetStatus.o)
                              build/default/production/_ext/1246622842/iic.o (I2CGetStatus)
d:/program files (x86)/microchip/xc32/v1.30/bin/../lib/gcc/pic32mx/4.5.2/../../../../pic32mx/lib\libmchp_peripheral_32MX795F512L.a(I2CReceivedDataIsAvailable.o)
                              build/default/production/_ext/1246622842/iic.o (I2CReceivedDataIsAvailable)
d:/program files (x86)/microchip/xc32/v1.30/bin/../lib/gcc/pic32mx/4.5.2/../../../../pic32mx/lib\libmchp_peripheral_32MX795F512L.a(I2CReceiverEnable.o)
                              build/default/production/_ext/1246622842/iic.o (I2CReceiverEnable)
d:/program files (x86)/microchip/xc32/v1.30/bin/../lib/gcc/pic32mx/4.5.2/../../../../pic32mx/lib\libmchp_peripheral_32MX795F512L.a(I2CRepeatStart.o)
                              build/default/production/_ext/1246622842/iic.o (I2CRepeatStart)
d:/program files (x86)/microchip/xc32/v1.30/bin/../lib/gcc/pic32mx/4.5.2/../../../../pic32mx/lib\libmchp_peripheral_32MX795F512L.a(I2CSendByte.o)
                              build/default/production/_ext/1246622842/iic.o (I2CSendByte)
d:/program files (x86)/microchip/xc32/v1.30/bin/../lib/gcc/pic32mx/4.5.2/../../../../pic32mx/lib\libmchp_peripheral_32MX795F512L.a(I2CSetFrequency.o)
                              build/default/production/_ext/1246622842/iic.o (I2CSetFrequency)
d:/program files (x86)/microchip/xc32/v1.30/bin/../lib/gcc/pic32mx/4.5.2/../../../../pic32mx/lib\libmchp_peripheral_32MX795F512L.a(I2CSetSlaveAddress.o)
                              build/default/production/_ext/1246622842/iic.o (I2CSetSlaveAddress)
d:/program files (x86)/microchip/xc32/v1.30/bin/../lib/gcc/pic32mx/4.5.2/../../../../pic32mx/lib\libmchp_peripheral_32MX795F512L.a(I2CStart.o)
                              build/default/production/_ext/1246622842/iic.o (I2CStart)
d:/program files (x86)/microchip/xc32/v1.30/bin/../lib/gcc/pic32mx/4.5.2/../../../../pic32mx/lib\libmchp_peripheral_32MX795F512L.a(I2CStop.o)
                              build/default/production/_ext/1246622842/iic.o (I2CStop)
d:/program files (x86)/microchip/xc32/v1.30/bin/../lib/gcc/pic32mx/4.5.2/../../../../pic32mx/lib\libmchp_peripheral_32MX795F512L.a(I2CTransmissionHasCompleted.o)
                              build/default/production/_ext/1246622842/iic.o (I2CTransmissionHasCompleted)
d:/program files (x86)/microchip/xc32/v1.30/bin/../lib/gcc/pic32mx/4.5.2/../../../../pic32mx/lib\libmchp_peripheral_32MX795F512L.a(I2CTransmitterIsReady.o)
                              build/default/production/_ext/1246622842/iic.o (I2CTransmitterIsReady)
d:/program files (x86)/microchip/xc32/v1.30/bin/../lib/gcc/pic32mx/4.5.2/../../../../pic32mx/lib\libmchp_peripheral_32MX795F512L.a(I2CPrivate.o)
                              d:/program files (x86)/microchip/xc32/v1.30/bin/../lib/gcc/pic32mx/4.5.2/../../../../pic32mx/lib\libmchp_peripheral_32MX795F512L.a(I2CBusIsIdle.o) (i2cBase)
d:/program files (x86)/microchip/xc32/v1.30/bin/../lib/gcc/pic32mx/4.5.2\libgcc.a(floatunsisf.o)
                              build/default/production/_ext/1246622842/lngctrl.o (__floatunsisf)
d:/program files (x86)/microchip/xc32/v1.30/bin/../lib/gcc/pic32mx/4.5.2/../../../../pic32mx/lib\libpic32.a(memcmp.o)
                              build/default/production/_ext/1246622842/company.o (memcmp)
d:/program files (x86)/microchip/xc32/v1.30/bin/../lib/gcc/pic32mx/4.5.2/../../../../pic32mx/lib\libpic32.a(memcpy.o)
                              build/default/production/_ext/1246622842/company.o (memcpy)
d:/program files (x86)/microchip/xc32/v1.30/bin/../lib/gcc/pic32mx/4.5.2/../../../../pic32mx/lib\libpic32.a(memset.o)
                              build/default/production/_ext/1246622842/clock.o (memset)
d:/program files (x86)/microchip/xc32/v1.30/bin/../lib/gcc/pic32mx/4.5.2/../../../../pic32mx/lib\libpic32.a(strcmp.o)
                              build/default/production/_ext/1246622842/ic_card.o (strcmp)
d:/program files (x86)/microchip/xc32/v1.30/bin/../lib/gcc/pic32mx/4.5.2/../../../../pic32mx/lib\libpic32.a(strcpy.o)
                              build/default/production/_ext/1246622842/key.o (strcpy)
d:/program files (x86)/microchip/xc32/v1.30/bin/../lib/gcc/pic32mx/4.5.2/../../../../pic32mx/lib\libpic32.a(strlen.o)
                              build/default/production/_ext/1246622842/company.o (strlen)
d:/program files (x86)/microchip/xc32/v1.30/bin/../lib/gcc/pic32mx/4.5.2/../../../../pic32mx/lib\libpic32.a(default-bootstrap-exception-handler.o)
                              d:/program files (x86)/microchip/xc32/v1.30/bin/../lib/gcc/pic32mx/4.5.2/../../../../pic32mx/lib/./proc/32MX795F512L/crt0_mips32r2.o (_bootstrap_exception_handler)
d:/program files (x86)/microchip/xc32/v1.30/bin/../lib/gcc/pic32mx/4.5.2/../../../../pic32mx/lib\libpic32.a(default-on-reset.o)
                              d:/program files (x86)/microchip/xc32/v1.30/bin/../lib/gcc/pic32mx/4.5.2/../../../../pic32mx/lib/./proc/32MX795F512L/crt0_mips32r2.o (_on_reset)
d:/program files (x86)/microchip/xc32/v1.30/bin/../lib/gcc/pic32mx/4.5.2/../../../../pic32mx/lib\libpic32.a(default-on-bootstrap.o)
                              d:/program files (x86)/microchip/xc32/v1.30/bin/../lib/gcc/pic32mx/4.5.2/../../../../pic32mx/lib/./proc/32MX795F512L/crt0_mips32r2.o (_on_bootstrap)
d:/program files (x86)/microchip/xc32/v1.30/bin/../lib/gcc/pic32mx/4.5.2/../../../../pic32mx/lib\libpic32.a(default-nmi-handler.o)
                              d:/program files (x86)/microchip/xc32/v1.30/bin/../lib/gcc/pic32mx/4.5.2/../../../../pic32mx/lib/./proc/32MX795F512L/crt0_mips32r2.o (_nmi_handler)
d:/program files (x86)/microchip/xc32/v1.30/bin/../lib/gcc/pic32mx/4.5.2/../../../../pic32mx/lib\libpic32.a(pic32_software_reset.o)
                              d:/program files (x86)/microchip/xc32/v1.30/bin/../lib/gcc/pic32mx/4.5.2/../../../../pic32mx/lib\libpic32.a(default-bootstrap-exception-handler.o) (__pic32_software_reset)
d:/program files (x86)/microchip/xc32/v1.30/bin/../lib/gcc/pic32mx/4.5.2/../../../../pic32mx/lib\libpic32.a(general-exception.o)
                              d:/program files (x86)/microchip/xc32/v1.30/bin/../lib/gcc/pic32mx/4.5.2/../../../../pic32mx/lib/./proc/32MX795F512L/crt0_mips32r2.o (_general_exception_context)
d:/program files (x86)/microchip/xc32/v1.30/bin/../lib/gcc/pic32mx/4.5.2/../../../../pic32mx/lib\libpic32.a(default-general-exception-handler.o)
                              d:/program files (x86)/microchip/xc32/v1.30/bin/../lib/gcc/pic32mx/4.5.2/../../../../pic32mx/lib\libpic32.a(general-exception.o) (_general_exception_handler)
d:/program files (x86)/microchip/xc32/v1.30/bin/../lib/gcc/pic32mx/4.5.2/../../../../pic32mx/lib\libm.a(fp32.o)
                              build/default/production/_ext/1246622842/lngctrl.o (fpsub)
d:/program files (x86)/microchip/xc32/v1.30/bin/../lib/gcc/pic32mx/4.5.2/../../../../pic32mx/lib\libc.a(atoi.o)
                              build/default/production/_ext/1246622842/company.o (atoi)
d:/program files (x86)/microchip/xc32/v1.30/bin/../lib/gcc/pic32mx/4.5.2/../../../../pic32mx/lib\libc.a(cldiv.o)
                              build/default/production/_ext/1246622842/clock.o (ldiv)
d:/program files (x86)/microchip/xc32/v1.30/bin/../lib/gcc/pic32mx/4.5.2/../../../../pic32mx/lib\libc.a(ctype.o)
                              d:/program files (x86)/microchip/xc32/v1.30/bin/../lib/gcc/pic32mx/4.5.2/../../../../pic32mx/lib\libc.a(atoi.o) (_ctype)
d:/program files (x86)/microchip/xc32/v1.30/bin/../lib/gcc/pic32mx/4.5.2/../../../../pic32mx/lib\libc.a(itoa.o)
                              build/default/production/_ext/1246622842/ic_card.o (itoa)
d:/program files (x86)/microchip/xc32/v1.30/bin/../lib/gcc/pic32mx/4.5.2/../../../../pic32mx/lib\libc.a(strchr.o)
                              build/default/production/_ext/1246622842/ic_card.o (strchr)
d:/program files (x86)/microchip/xc32/v1.30/bin/../lib/gcc/pic32mx/4.5.2/../../../../pic32mx/lib\libc.a(strstr.o)
                              build/default/production/_ext/1246622842/ic_card.o (strstr)
d:/program files (x86)/microchip/xc32/v1.30/bin/../lib/gcc/pic32mx/4.5.2/../../../../pic32mx/lib\libc.a(strtol.o)
                              build/default/production/_ext/1246622842/clock.o (strtoul)
d:/program files (x86)/microchip/xc32/v1.30/bin/../lib/gcc/pic32mx/4.5.2/../../../../pic32mx/lib\libc.a(atof.o)
                              build/default/production/_ext/1246622842/disp.o (atof)
d:/program files (x86)/microchip/xc32/v1.30/bin/../lib/gcc/pic32mx/4.5.2/../../../../pic32mx/lib\libc.a(sprintf_cdfFnopuxX.eo)
                              build/default/production/_ext/1246622842/lngctrl.o (_sprintf_cdfFnopuxX)
d:/program files (x86)/microchip/xc32/v1.30/bin/../lib/gcc/pic32mx/4.5.2/../../../../pic32mx/lib\libc.a(sprintf_cdnopuxX.eo)
                              build/default/production/_ext/1246622842/company.o (_sprintf_cdnopuxX)
d:/program files (x86)/microchip/xc32/v1.30/bin/../lib/gcc/pic32mx/4.5.2/../../../../pic32mx/lib\libc.a(sprintf_fF.eo)
                              build/default/production/_ext/1246622842/disp.o (_sprintf_fF)
d:/program files (x86)/microchip/xc32/v1.30/bin/../lib/gcc/pic32mx/4.5.2/../../../../pic32mx/lib\libc.a(vsprintf.o)
                              build/default/production/_ext/1218090624/init.o (vsprintf)
d:/program files (x86)/microchip/xc32/v1.30/bin/../lib/gcc/pic32mx/4.5.2/../../../../pic32mx/lib\libc.a(ctypef.o)
                              d:/program files (x86)/microchip/xc32/v1.30/bin/../lib/gcc/pic32mx/4.5.2/../../../../pic32mx/lib\libc.a(strtol.o) (toupper)
d:/program files (x86)/microchip/xc32/v1.30/bin/../lib/gcc/pic32mx/4.5.2/../../../../pic32mx/lib\libc.a(errno.o)
                              d:/program files (x86)/microchip/xc32/v1.30/bin/../lib/gcc/pic32mx/4.5.2/../../../../pic32mx/lib\libc.a(strtol.o) (errno)
d:/program files (x86)/microchip/xc32/v1.30/bin/../lib/gcc/pic32mx/4.5.2/../../../../pic32mx/lib\libc.a(strncmp.o)
                              d:/program files (x86)/microchip/xc32/v1.30/bin/../lib/gcc/pic32mx/4.5.2/../../../../pic32mx/lib\libc.a(strstr.o) (strncmp)
d:/program files (x86)/microchip/xc32/v1.30/bin/../lib/gcc/pic32mx/4.5.2/../../../../pic32mx/lib\libc.a(strtof.o)
                              d:/program files (x86)/microchip/xc32/v1.30/bin/../lib/gcc/pic32mx/4.5.2/../../../../pic32mx/lib\libc.a(atof.o) (strtof)
d:/program files (x86)/microchip/xc32/v1.30/bin/../lib/gcc/pic32mx/4.5.2/../../../../pic32mx/lib\libc.a(doprnt_cdfFnopuxX.eo)
                              d:/program files (x86)/microchip/xc32/v1.30/bin/../lib/gcc/pic32mx/4.5.2/../../../../pic32mx/lib\libc.a(sprintf_cdfFnopuxX.eo) (_vfprintf_cdfFnopuxX)
d:/program files (x86)/microchip/xc32/v1.30/bin/../lib/gcc/pic32mx/4.5.2/../../../../pic32mx/lib\libc.a(doprnt_cdnopuxX.eo)
                              d:/program files (x86)/microchip/xc32/v1.30/bin/../lib/gcc/pic32mx/4.5.2/../../../../pic32mx/lib\libc.a(sprintf_cdnopuxX.eo) (_vfprintf_cdnopuxX)
d:/program files (x86)/microchip/xc32/v1.30/bin/../lib/gcc/pic32mx/4.5.2/../../../../pic32mx/lib\libc.a(doprnt_fF.eo)
                              d:/program files (x86)/microchip/xc32/v1.30/bin/../lib/gcc/pic32mx/4.5.2/../../../../pic32mx/lib\libc.a(sprintf_fF.eo) (_vfprintf_fF)
d:/program files (x86)/microchip/xc32/v1.30/bin/../lib/gcc/pic32mx/4.5.2/../../../../pic32mx/lib\libc.a(doprnt.o)
                              d:/program files (x86)/microchip/xc32/v1.30/bin/../lib/gcc/pic32mx/4.5.2/../../../../pic32mx/lib\libc.a(vsprintf.o) (vfprintf)
d:/program files (x86)/microchip/xc32/v1.30/bin/../lib/gcc/pic32mx/4.5.2/../../../../pic32mx/lib\libc.a(_fputc_simple.o)
                              d:/program files (x86)/microchip/xc32/v1.30/bin/../lib/gcc/pic32mx/4.5.2/../../../../pic32mx/lib\libc.a(doprnt_cdfFnopuxX.eo) (fputc)
d:/program files (x86)/microchip/xc32/v1.30/bin/../lib/gcc/pic32mx/4.5.2/../../../../pic32mx/lib\libc.a(powersf.o)
                              d:/program files (x86)/microchip/xc32/v1.30/bin/../lib/gcc/pic32mx/4.5.2/../../../../pic32mx/lib\libc.a(doprnt_cdfFnopuxX.eo) (_powers_f)
d:/program files (x86)/microchip/xc32/v1.30/bin/../lib/gcc/pic32mx/4.5.2/../../../../pic32mx/lib\libc.a(_iob.o)
                              d:/program files (x86)/microchip/xc32/v1.30/bin/../lib/gcc/pic32mx/4.5.2/../../../../pic32mx/lib\libc.a(_fputc_simple.o) (_outdone)
d:/program files (x86)/microchip/xc32/v1.30/bin/../lib/gcc/pic32mx/4.5.2/../../../../pic32mx/lib\libc.a(_flsbuf_simple.o)
                              d:/program files (x86)/microchip/xc32/v1.30/bin/../lib/gcc/pic32mx/4.5.2/../../../../pic32mx/lib\libc.a(_fputc_simple.o) (_flsbuf)
d:/program files (x86)/microchip/xc32/v1.30/bin/../lib/gcc/pic32mx/4.5.2/../../../../pic32mx/lib\libpic32.a(write.o)
                              d:/program files (x86)/microchip/xc32/v1.30/bin/../lib/gcc/pic32mx/4.5.2/../../../../pic32mx/lib\libc.a(_fputc_simple.o) (write)
d:/program files (x86)/microchip/xc32/v1.30/bin/../lib/gcc/pic32mx/4.5.2/../../../../pic32mx/lib\libpic32.a(_mon_putc.o)
                              d:/program files (x86)/microchip/xc32/v1.30/bin/../lib/gcc/pic32mx/4.5.2/../../../../pic32mx/lib\libpic32.a(write.o) (_mon_putc)
d:/program files (x86)/microchip/xc32/v1.30/bin/../lib/gcc/pic32mx/4.5.2/../../../../pic32mx/lib\libpic32.a(xc32_uart.o)
                              d:/program files (x86)/microchip/xc32/v1.30/bin/../lib/gcc/pic32mx/4.5.2/../../../../pic32mx/lib\libpic32.a(_mon_putc.o) (__XC_UART)
d:/program files (x86)/microchip/xc32/v1.30/bin/../lib/gcc/pic32mx/4.5.2/../../../../pic32mx/lib\libm.a(fpmod32.o)
                              d:/program files (x86)/microchip/xc32/v1.30/bin/../lib/gcc/pic32mx/4.5.2/../../../../pic32mx/lib\libc.a(doprnt_cdfFnopuxX.eo) (frexpf)
d:/program files (x86)/microchip/xc32/v1.30/bin/../lib/gcc/pic32mx/4.5.2/../../../../pic32mx/lib\libe.a(_floatdisf.o)
                              d:/program files (x86)/microchip/xc32/v1.30/bin/../lib/gcc/pic32mx/4.5.2/../../../../pic32mx/lib\libc.a(doprnt_cdfFnopuxX.eo) (__floatdisf)
d:/program files (x86)/microchip/xc32/v1.30/bin/../lib/gcc/pic32mx/4.5.2/../../../../pic32mx/lib\libe.a(_strtof.o)
                              d:/program files (x86)/microchip/xc32/v1.30/bin/../lib/gcc/pic32mx/4.5.2/../../../../pic32mx/lib\libc.a(strtof.o) (__strtof)
d:/program files (x86)/microchip/xc32/v1.30/bin/../lib/gcc/pic32mx/4.5.2/../../../../pic32mx/lib\libe.a(_ldexpf.o)
                              d:/program files (x86)/microchip/xc32/v1.30/bin/../lib/gcc/pic32mx/4.5.2/../../../../pic32mx/lib\libe.a(_strtof.o) (__ldexpf)
d:/program files (x86)/microchip/xc32/v1.30/bin/../lib/gcc/pic32mx/4.5.2\libgcc.a(_floatundisf.o)
                              d:/program files (x86)/microchip/xc32/v1.30/bin/../lib/gcc/pic32mx/4.5.2/../../../../pic32mx/lib\libc.a(doprnt_cdfFnopuxX.eo) (__floatundisf)
d:/program files (x86)/microchip/xc32/v1.30/bin/../lib/gcc/pic32mx/4.5.2\libgcc.a(_udivdi3.o)
                              d:/program files (x86)/microchip/xc32/v1.30/bin/../lib/gcc/pic32mx/4.5.2/../../../../pic32mx/lib\libc.a(doprnt_cdfFnopuxX.eo) (__udivdi3)
d:/program files (x86)/microchip/xc32/v1.30/bin/../lib/gcc/pic32mx/4.5.2\libgcc.a(_umoddi3.o)
                              d:/program files (x86)/microchip/xc32/v1.30/bin/../lib/gcc/pic32mx/4.5.2/../../../../pic32mx/lib\libc.a(doprnt_cdfFnopuxX.eo) (__umoddi3)

Allocating common symbols
Common symbol       size              file

_modbus_response_buf
                    0x20              build/default/production/_ext/1246622842/24lcxxx.o
eVirtualKey         0x1               build/default/production/_ext/1246622842/24lcxxx.o
Com_Timeoutnum      0x1               build/default/production/_ext/1246622842/24lcxxx.o
gTick               0x4               build/default/production/_ext/1246622842/24lcxxx.o
JQvolu              0x4               build/default/production/_ext/1246622842/24lcxxx.o
KEY422_ERRBYTE_Tick
                    0x4               build/default/production/_ext/1246622842/24lcxxx.o
tm1                 0x24              build/default/production/_ext/1246622842/24lcxxx.o
Qianghao            0x1               build/default/production/_ext/1246622842/24lcxxx.o
tm3                 0x24              build/default/production/_ext/1246622842/24lcxxx.o
shift_ok            0x4               build/default/production/_ext/1246622842/24lcxxx.o
Companycrc_rece     0x2               build/default/production/_ext/1246622842/24lcxxx.o
subfunc             0x1               build/default/production/_ext/1246622842/24lcxxx.o
tm2                 0x24              build/default/production/_ext/1246622842/24lcxxx.o
PRICE10             0x4               build/default/production/_ext/1246622842/24lcxxx.o
gass_class          0x1               build/default/production/_ext/1246622842/24lcxxx.o
car_prem            0x4               build/default/production/_ext/1246622842/24lcxxx.o
gReadKeyTick        0x4               build/default/production/_ext/1246622842/24lcxxx.o
car_prel            0x4               build/default/production/_ext/1246622842/24lcxxx.o
data_01             0x400             build/default/production/_ext/1246622842/24lcxxx.o
HARDKEYCERA4        0x1               build/default/production/_ext/1246622842/24lcxxx.o
SP                  0x1               build/default/production/_ext/1246622842/24lcxxx.o
Send_Buf            0x80              build/default/production/_ext/1246622842/24lcxxx.o
cur_max_blacklist   0x2               build/default/production/_ext/1246622842/24lcxxx.o
Err_ZhuTime         0x1               build/default/production/_ext/1246622842/24lcxxx.o
temp_add_vol        0x1               build/default/production/_ext/1246622842/24lcxxx.o
revtime             0xa               build/default/production/_ext/1246622842/24lcxxx.o
class_sum           0x1               build/default/production/_ext/1246622842/24lcxxx.o
RecvUnit_ok         0x4               build/default/production/_ext/1246622842/24lcxxx.o
read_keyv_CS        0x1               build/default/production/_ext/1246622842/24lcxxx.o
CARD_XIAOFEI        0x1               build/default/production/_ext/1246622842/24lcxxx.o
CN                  0xa               build/default/production/_ext/1246622842/24lcxxx.o
modbus_lg_switch    0x4               build/default/production/_ext/1218090624/module_test.o
cur_init_lngnum     0x4               build/default/production/_ext/1246622842/24lcxxx.o
_b_run_lng_flag     0x4               build/default/production/_ext/1246622842/24lcxxx.o
Rec_End_Press       0x4               build/default/production/_ext/1246622842/24lcxxx.o
gComIn              0x28              build/default/production/_ext/1246622842/24lcxxx.o
Mini_FD             0x4               build/default/production/_ext/1246622842/24lcxxx.o
HQ_PRINT            0x1               build/default/production/_ext/1246622842/24lcxxx.o
Car_hui             0x1               build/default/production/_ext/1246622842/24lcxxx.o
OKgas_money         0x4               build/default/production/_ext/1246622842/24lcxxx.o
GAS_BACKGV          0x4               build/default/production/_ext/1246622842/24lcxxx.o
cur_rec_shiftinfo   0x38              build/default/production/_ext/1246622842/24lcxxx.o
b_fixnop            0x4               build/default/production/_ext/1246622842/24lcxxx.o
Companybufleng      0x1               build/default/production/_ext/1246622842/24lcxxx.o
uart_state2         0x1               build/default/production/_ext/1246622842/24lcxxx.o
hk_disp             0x4               build/default/production/_ext/1246622842/24lcxxx.o
Rec_Begin_Press     0x4               build/default/production/_ext/1246622842/24lcxxx.o
_b_precool_lng_flag
                    0x4               build/default/production/_ext/1246622842/24lcxxx.o
_b_quan_err         0x4               build/default/production/_ext/1246622842/24lcxxx.o
Rec_inxex           0x1               build/default/production/_ext/1246622842/24lcxxx.o
cur_max_paraid      0x4               build/default/production/_ext/1246622842/24lcxxx.o
re_over_tick2       0x4               build/default/production/_ext/1246622842/24lcxxx.o
KY_PRINT            0x4               build/default/production/_ext/1246622842/24lcxxx.o
DJ_PRINT            0x4               build/default/production/_ext/1246622842/24lcxxx.o
eCurRunState        0x1               build/default/production/_ext/1246622842/24lcxxx.o
_ui_qry_cardinfo_id
                    0x1               build/default/production/_ext/1246622842/24lcxxx.o
_b_simu_lng         0x4               build/default/production/_ext/1246622842/24lcxxx.o
pro_alarm           0x4               build/default/production/_ext/1246622842/24lcxxx.o
CPH_IN              0xc               build/default/production/_ext/1246622842/24lcxxx.o
Zttz_Time           0x4               build/default/production/_ext/1246622842/24lcxxx.o
shift_read          0x34              build/default/production/_ext/1246622842/24lcxxx.o
Rec_debug_ok        0x1               build/default/production/_ext/1246622842/24lcxxx.o
cure_yz_card        0xa               build/default/production/_ext/1246622842/24lcxxx.o
ID_PRINT            0x4               build/default/production/_ext/1246622842/24lcxxx.o
FIX_Money           0x4               build/default/production/_ext/1246622842/24lcxxx.o
card_info_len       0x1               build/default/production/_ext/1246622842/24lcxxx.o
sq                  0x4               build/default/production/_ext/1246622842/24lcxxx.o
dkpd                0x1               build/default/production/_ext/1246622842/24lcxxx.o
signfun             0x1               build/default/production/_ext/1246622842/24lcxxx.o
GasCo               0x1               build/default/production/_ext/1246622842/24lcxxx.o
Err_JPTime          0x1               build/default/production/_ext/1246622842/24lcxxx.o
PRICE               0x4               build/default/production/_ext/1246622842/24lcxxx.o
Keyvol_PRE          0x1               build/default/production/_ext/1246622842/24lcxxx.o
Pr_gr               0x1               build/default/production/_ext/1246622842/24lcxxx.o
RQ_PRINT            0x6               build/default/production/_ext/1246622842/24lcxxx.o
cur_un_float        0x4               build/default/production/_ext/1246622842/24lcxxx.o
SendStop_False      0x1               build/default/production/_ext/1246622842/24lcxxx.o
sys_time            0x6               build/default/production/_ext/1246622842/24lcxxx.o
GasBegin            0x1               build/default/production/_ext/1246622842/24lcxxx.o
cur_shiftid         0x1               build/default/production/_ext/1246622842/24lcxxx.o
HUAIKUAI            0x4               build/default/production/_ext/1246622842/24lcxxx.o
global_ic_card_info
                    0xd2              build/default/production/_ext/1246622842/24lcxxx.o
ic_card             0x14              build/default/production/_ext/1246622842/ic_card.o
cur_cngdensty       0x4               build/default/production/_ext/1246622842/24lcxxx.o
Cp_flag             0x1               build/default/production/_ext/1246622842/24lcxxx.o
cur_rec_sysinfo     0x38              build/default/production/_ext/1246622842/24lcxxx.o
cur_calnum_c        0x4               build/default/production/_ext/1246622842/24lcxxx.o
send_yl_flag        0x4               build/default/production/_ext/1246622842/24lcxxx.o
cur_cngrate         0x4               build/default/production/_ext/1246622842/24lcxxx.o
ZK_POWER            0x1               build/default/production/_ext/1246622842/24lcxxx.o
b_mainui            0x4               build/default/production/_ext/1246622842/24lcxxx.o
Rec_Card_Preg_int   0x4               build/default/production/_ext/1246622842/24lcxxx.o
Rec_debug_order     0x1               build/default/production/_ext/1246622842/24lcxxx.o
cur_keysound        0x1               build/default/production/_ext/1246622842/24lcxxx.o
cur_card_money      0x4               build/default/production/_ext/1246622842/24lcxxx.o
dataX               0x2c              build/default/production/_ext/1246622842/24lcxxx.o
_b_running_flag     0x4               build/default/production/_ext/1246622842/24lcxxx.o
CN_PRINT            0xa               build/default/production/_ext/1246622842/24lcxxx.o
CanGasTime          0x4               build/default/production/_ext/1246622842/24lcxxx.o
_simu_iic_step      0x2               build/default/production/_ext/1246622842/24lcxxx.o
Cur_StationNo       0x1               build/default/production/_ext/1246622842/24lcxxx.o
Car_Hui_ok          0x1               build/default/production/_ext/1246622842/24lcxxx.o
wk_cont             0x1               build/default/production/_ext/1246622842/24lcxxx.o
SetValue            0x4               build/default/production/_ext/1246622842/24lcxxx.o
HQL_PRINT           0x4               build/default/production/_ext/1246622842/24lcxxx.o
Rec_Card_PreM       0x4               build/default/production/_ext/1246622842/24lcxxx.o
SendUnit_ok         0x4               build/default/production/_ext/1246622842/24lcxxx.o
gComRFPos           0x1               build/default/production/_ext/1246622842/24lcxxx.o
_10ms_tick_         0x4               build/default/production/_ext/1246622842/24lcxxx.o
IS_GUANLI_CARD_GAS  0x1               build/default/production/_ext/1246622842/24lcxxx.o
JE_PRINT            0x4               build/default/production/_ext/1246622842/24lcxxx.o
CPBH                0x10              build/default/production/_ext/1246622842/24lcxxx.o
FLASH_R_BUF         0x200             build/default/production/_ext/1246622842/24lcxxx.o
TEST1_tick          0x4               build/default/production/_ext/1246622842/24lcxxx.o
WDBJ                0x4               build/default/production/_ext/1246622842/24lcxxx.o
Recv_Buf            0x50              build/default/production/_ext/1246622842/24lcxxx.o
cure_shift_card     0xa               build/default/production/_ext/1246622842/24lcxxx.o
mlc                 0x4               build/default/production/_ext/1246622842/24lcxxx.o
keyv                0x1               build/default/production/_ext/1246622842/24lcxxx.o
deg_oparme          0x14              build/default/production/_ext/1246622842/24lcxxx.o
glc                 0x4               build/default/production/_ext/1246622842/24lcxxx.o
gcombufleng         0x1               build/default/production/_ext/1246622842/24lcxxx.o
_ui_module_id       0x1               build/default/production/_ext/1246622842/24lcxxx.o
CANGASMINUTE        0x1               build/default/production/_ext/1246622842/24lcxxx.o
IsGasAdd_tick       0x4               build/default/production/_ext/1246622842/24lcxxx.o
CompanyInbufleng    0x1               build/default/production/_ext/1246622842/24lcxxx.o
_b_quota_err        0x4               build/default/production/_ext/1246622842/24lcxxx.o
CP_PRINT            0xc               build/default/production/_ext/1246622842/24lcxxx.o
cur_p_GID           0x1               build/default/production/_ext/1246622842/24lcxxx.o
_10ms_tick2_        0x4               build/default/production/_ext/1246622842/24lcxxx.o
cur_price           0x4               build/default/production/_ext/1246622842/24lcxxx.o
cur_lngtemp         0x4               build/default/production/_ext/1246622842/24lcxxx.o
_ui_pricex_set_id   0x1               build/default/production/_ext/1246622842/24lcxxx.o
ReadTn              0x1               build/default/production/_ext/1246622842/24lcxxx.o
cur_cnggain         0x4               build/default/production/_ext/1246622842/24lcxxx.o
KEY_CAR_PASS        0x8               build/default/production/_ext/1246622842/24lcxxx.o
GPBH                0x10              build/default/production/_ext/1246622842/24lcxxx.o
Carcheck_tick       0x4               build/default/production/_ext/1246622842/24lcxxx.o
SP_tick             0x4               build/default/production/_ext/1246622842/24lcxxx.o
ReadTemp_Tick       0x4               build/default/production/_ext/1246622842/24lcxxx.o
Disp_AllErr_tick    0x4               build/default/production/_ext/1246622842/24lcxxx.o
gass_ok             0x4               build/default/production/_ext/1246622842/24lcxxx.o
Precool_ok          0x4               build/default/production/_ext/1246622842/24lcxxx.o
uart_state          0x1               build/default/production/_ext/1246622842/24lcxxx.o
_ui_syschk_set_id   0x1               build/default/production/_ext/1246622842/24lcxxx.o
_ui_cs_set_id       0x1               build/default/production/_ext/1246622842/24lcxxx.o
gScanKeyTick        0x4               build/default/production/_ext/1246622842/24lcxxx.o
QX_RECORD           0x4               build/default/production/_ext/1246622842/24lcxxx.o
swjset_value        0x4               build/default/production/_ext/1246622842/24lcxxx.o
Rec_Sum_Start       0x4               build/default/production/_ext/1246622842/24lcxxx.o
_ui_precool_set_id  0x1               build/default/production/_ext/1246622842/24lcxxx.o
_b_have_card        0x4               build/default/production/_ext/1246622842/24lcxxx.o
se_cmdnu            0x1               build/default/production/_ext/1246622842/24lcxxx.o
gComRec_OK          0x1               build/default/production/_ext/1246622842/24lcxxx.o
b_keyv              0x4               build/default/production/_ext/1246622842/24lcxxx.o
cur_lngrate         0x4               build/default/production/_ext/1246622842/24lcxxx.o
Operate_fixm        0x1               build/default/production/_ext/1246622842/24lcxxx.o
cur_lngnum          0x4               build/default/production/_ext/1246622842/24lcxxx.o
cur_sysparas        0xa8              build/default/production/_ext/1246622842/24lcxxx.o
cur_lngdensty       0x4               build/default/production/_ext/1246622842/24lcxxx.o
Rec_Card_PreM_int   0x4               build/default/production/_ext/1246622842/24lcxxx.o
_sys_tick_          0x4               build/default/production/_ext/1246622842/24lcxxx.o
_b_have_cont        0x1               build/default/production/_ext/1246622842/24lcxxx.o
_CARD_TYPE          0x1               build/default/production/_ext/1246622842/24lcxxx.o
b_fixmop            0x4               build/default/production/_ext/1246622842/24lcxxx.o
_ui_paras_set_id    0x1               build/default/production/_ext/1246622842/24lcxxx.o
EecKeynull          0x4               build/default/production/_ext/1246622842/24lcxxx.o
SysrunTick          0x4               build/default/production/_ext/1246622842/24lcxxx.o
Company_alarm       0x4               build/default/production/_ext/1246622842/24lcxxx.o
Company_Timeoutnum  0x1               build/default/production/_ext/1246622842/24lcxxx.o
PR_YGH              0x2               build/default/production/_ext/1246622842/24lcxxx.o
CPH                 0xc               build/default/production/_ext/1246622842/24lcxxx.o
Keyvol_num          0x1               build/default/production/_ext/1246622842/24lcxxx.o
QX_OVER             0x1               build/default/production/_ext/1246622842/24lcxxx.o
_gas_run_flag       0x4               build/default/production/_ext/1246622842/24lcxxx.o
FIX_RecOK           0x1               build/default/production/_ext/1246622842/24lcxxx.o
Result_card         0x4               build/default/production/_ext/1246622842/24lcxxx.o
b_shift_ok          0x1               build/default/production/_ext/1246622842/24lcxxx.o
zhutime             0x6               build/default/production/_ext/1246622842/24lcxxx.o
_simu_lngnum        0x4               build/default/production/_ext/1246622842/24lcxxx.o
DUISHI              0x1               build/default/production/_ext/1246622842/24lcxxx.o
Rec_liushnum        0x2               build/default/production/_ext/1246622842/24lcxxx.o
cur_calsum_c        0x4               build/default/production/_ext/1246622842/24lcxxx.o
crc_rece            0x2               build/default/production/_ext/1246622842/24lcxxx.o
heareat_flag        0x4               build/default/production/_ext/1246622842/24lcxxx.o
sys_info_page       0x1               build/default/production/_ext/1246622842/24lcxxx.o
cur_max_soe         0x2               build/default/production/_ext/1246622842/24lcxxx.o
msg                 0x86              build/default/production/_ext/1246622842/ic_card.o
temperature         0x4               build/default/production/_ext/1246622842/24lcxxx.o
shift_write         0x34              build/default/production/_ext/1246622842/24lcxxx.o
GAS_MustStop_Err    0x1               build/default/production/_ext/1246622842/24lcxxx.o
Sign_Name           0x3               build/default/production/_ext/1246622842/24lcxxx.o
cur_max_recid       0x4               build/default/production/_ext/1246622842/24lcxxx.o
pr_lsh              0x4               build/default/production/_ext/1246622842/24lcxxx.o
TEST_tick           0x4               build/default/production/_ext/1246622842/24lcxxx.o
QL_PRINT            0x4               build/default/production/_ext/1246622842/24lcxxx.o
Companytime_flag    0x4               build/default/production/_ext/1246622842/24lcxxx.o
Rec_shiftidnum      0x2               build/default/production/_ext/1246622842/24lcxxx.o
AgComIn             0x32              build/default/production/_ext/1246622842/24lcxxx.o
Graybegain          0x1               build/default/production/_ext/1246622842/24lcxxx.o
led                 0x1               build/default/production/_ext/1246622842/24lcxxx.o
Rec_Sum_End         0x4               build/default/production/_ext/1246622842/24lcxxx.o
GAS_Stime           0x6               build/default/production/_ext/1246622842/24lcxxx.o
PRICE9              0x4               build/default/production/_ext/1246622842/24lcxxx.o
JQ_money            0x4               build/default/production/_ext/1246622842/24lcxxx.o
PRICE2              0x4               build/default/production/_ext/1246622842/24lcxxx.o
cur_calsum          0x4               build/default/production/_ext/1246622842/24lcxxx.o
Rec_Card_EndM_int   0x4               build/default/production/_ext/1246622842/24lcxxx.o
keynum              0x1               build/default/production/_ext/1246622842/qry.o
re_over_tick        0x4               build/default/production/_ext/1246622842/24lcxxx.o
Runled_tick         0x4               build/default/production/_ext/1246622842/24lcxxx.o
heareat_time        0x4               build/default/production/_ext/1246622842/24lcxxx.o
State_g_p           0x1               build/default/production/_ext/1246622842/24lcxxx.o
_simu_tick          0x2               build/default/production/_ext/1246622842/24lcxxx.o
Xs_Info             0x10              build/default/production/_ext/1246622842/24lcxxx.o
cure_JQ_card        0xa               build/default/production/_ext/1246622842/24lcxxx.o
WDKZ                0x4               build/default/production/_ext/1246622842/24lcxxx.o
sdk_cont            0x1               build/default/production/_ext/1246622842/24lcxxx.o
PRICE7              0x4               build/default/production/_ext/1246622842/24lcxxx.o
cur_init_cngnum     0x4               build/default/production/_ext/1246622842/24lcxxx.o
PRICE8              0x4               build/default/production/_ext/1246622842/24lcxxx.o
CompanyPos          0x1               build/default/production/_ext/1246622842/24lcxxx.o
PRICE3              0x4               build/default/production/_ext/1246622842/24lcxxx.o
PRICE4              0x4               build/default/production/_ext/1246622842/24lcxxx.o
Protocol_tick       0x4               build/default/production/_ext/1246622842/24lcxxx.o
PRICE6              0x4               build/default/production/_ext/1246622842/24lcxxx.o
PRICE5              0x4               build/default/production/_ext/1246622842/24lcxxx.o
send_sj_flag        0x4               build/default/production/_ext/1246622842/24lcxxx.o
cur_press           0x4               build/default/production/_ext/1246622842/24lcxxx.o
cursor_x            0x1               build/default/production/_ext/1246622842/24lcxxx.o
cursor_y            0x1               build/default/production/_ext/1246622842/24lcxxx.o
gas_record          0x30              build/default/production/_ext/1246622842/24lcxxx.o
_ui_sys_set_id      0x1               build/default/production/_ext/1246622842/24lcxxx.o
ic_status           0x4               build/default/production/_ext/1246622842/ic_card.o
Setsys_Rec_card     0xa               build/default/production/_ext/1246622842/24lcxxx.o
_b_cz_card          0x4               build/default/production/_ext/1246622842/24lcxxx.o
Is_debuggas_Read    0x1               build/default/production/_ext/1246622842/24lcxxx.o
Rec_Card_EndM       0x4               build/default/production/_ext/1246622842/24lcxxx.o
Rec_Card_Endg       0x4               build/default/production/_ext/1246622842/24lcxxx.o
Runled              0x4               build/default/production/_ext/1246622842/24lcxxx.o
MAX_dubug_recid_num
                    0x1               build/default/production/_ext/1246622842/24lcxxx.o
Debugasing_rstsave_Tick
                    0x4               build/default/production/_ext/1246622842/24lcxxx.o
WKJQ                0x1               build/default/production/_ext/1246622842/24lcxxx.o
offwork_ok          0x4               build/default/production/_ext/1246622842/24lcxxx.o
opotocol_SW         0x4               build/default/production/_ext/1246622842/24lcxxx.o
Newdisp_tick2       0x4               build/default/production/_ext/1246622842/24lcxxx.o
_sys_tick_cnt_      0x4               build/default/production/_ext/1246622842/24lcxxx.o
Cur_Price           0x4               build/default/production/_ext/1246622842/24lcxxx.o
DSCG                0x1               build/default/production/_ext/1246622842/24lcxxx.o
KeyScan             0x1               build/default/production/_ext/1246622842/24lcxxx.o
OKgas_GV            0x4               build/default/production/_ext/1246622842/24lcxxx.o
sig_err             0x4               build/default/production/_ext/1218090624/sign.o
_b_state_err        0x4               build/default/production/_ext/1246622842/24lcxxx.o
Precool_over        0x4               build/default/production/_ext/1246622842/24lcxxx.o
cur_shift_loginfo   0x30              build/default/production/_ext/1246622842/24lcxxx.o
GAS_Etime           0x6               build/default/production/_ext/1246622842/24lcxxx.o
gass_stop           0x4               build/default/production/_ext/1246622842/24lcxxx.o
smallMini_FD        0x4               build/default/production/_ext/1246622842/24lcxxx.o
pototime_flag       0x4               build/default/production/_ext/1246622842/24lcxxx.o
ok_ReadKeyTick      0x4               build/default/production/_ext/1246622842/24lcxxx.o
cur_max_shiftid     0x4               build/default/production/_ext/1246622842/24lcxxx.o
_modbus_response_len
                    0x1               build/default/production/_ext/1246622842/24lcxxx.o
cur_max_recid0      0x4               build/default/production/_ext/1246622842/24lcxxx.o
cur_fixm            0x4               build/default/production/_ext/1246622842/24lcxxx.o
cur_fixn            0x4               build/default/production/_ext/1246622842/24lcxxx.o
re_cmdnu            0x1               build/default/production/_ext/1246622842/24lcxxx.o
cur_max_reset       0x4               build/default/production/_ext/1246622842/24lcxxx.o
VerCard             0xb               build/default/production/_ext/1246622842/24lcxxx.o
Print_Info          0x28              build/default/production/_ext/1246622842/24lcxxx.o
gComRF              0x80              build/default/production/_ext/1246622842/24lcxxx.o
sys_recPCtime       0x6               build/default/production/_ext/1246622842/24lcxxx.o
Contact_Info        0x10              build/default/production/_ext/1246622842/24lcxxx.o
PrecoolCo           0x1               build/default/production/_ext/1246622842/24lcxxx.o
ORD_DATAPA          0x1               build/default/production/_ext/1246622842/24lcxxx.o
gcomInbufleng       0x1               build/default/production/_ext/1246622842/24lcxxx.o
Rec_Card_Preg       0x4               build/default/production/_ext/1246622842/24lcxxx.o
Sys_Rec_Err         0xa               build/default/production/_ext/1246622842/24lcxxx.o
Discount_validity   0x4               build/default/production/_ext/1246622842/24lcxxx.o
Add_Gas_CS          0x1               build/default/production/_ext/1246622842/24lcxxx.o
SCS                 0x1               build/default/production/_ext/1246622842/24lcxxx.o
Discounf            0x4               build/default/production/_ext/1246622842/24lcxxx.o
cur_lnggain         0x4               build/default/production/_ext/1246622842/24lcxxx.o
VER_MasterBoard     0x1               build/default/production/_ext/1246622842/24lcxxx.o
cur_cngtemp         0x4               build/default/production/_ext/1246622842/24lcxxx.o
Eeckey              0x1               build/default/production/_ext/1246622842/24lcxxx.o
Every_add_Gas       0xc8              build/default/production/_ext/1246622842/24lcxxx.o
cur_cngnum          0x4               build/default/production/_ext/1246622842/24lcxxx.o
PRINT_SET           0x1               build/default/production/_ext/1246622842/24lcxxx.o
Hard_Info           0x28              build/default/production/_ext/1246622842/24lcxxx.o
cur_class_info      0x140             build/default/production/_ext/1246622842/24lcxxx.o
FLASH_W_BUF         0x200             build/default/production/_ext/1246622842/24lcxxx.o
jr_power            0x1               build/default/production/_ext/1246622842/24lcxxx.o
_b_init_ok          0x4               build/default/production/_ext/1246622842/24lcxxx.o
Pre_vol_add         0x4               build/default/production/_ext/1246622842/24lcxxx.o
cur_calnum          0x4               build/default/production/_ext/1246622842/24lcxxx.o
Rec_Card_Endg_int   0x4               build/default/production/_ext/1246622842/24lcxxx.o

Microchip PIC32 Memory-Usage Report

kseg0 Program-Memory Usage
section                    address  length [bytes]      (dec)  Description
-------                 ----------  -------------------------  -----------
.text                   0x9d004490        0x407a4      264100  App's exec code 
.text.vfprintf          0x9d044c34         0x1bb0        7088   
.text                   0x9d0467e4         0x7510       29968  App's exec code 
.text._vfprintf_cdfFnop 0x9d04dcf4         0x13d4        5076   
.text                   0x9d04f0c8         0x2440        9280  App's exec code 
.rodata                 0x9d051508         0x10fc        4348  Read-only const 
.text                   0x9d052604          0xd44        3396  App's exec code 
.rodata                 0x9d053348          0xd38        3384  Read-only const 
.text                   0x9d054080         0x1d04        7428  App's exec code 
.rodata                 0x9d055d84          0xf94        3988  Read-only const 
.text                   0x9d056d18          0xf4c        3916  App's exec code 
.rodata                 0x9d057c64          0xe40        3648  Read-only const 
.text                   0x9d058aa4          0x6cc        1740  App's exec code 
.rodata                 0x9d059170          0x6a4        1700  Read-only const 
.dinit                  0x9d059814          0x680        1664   
.rodata                 0x9d059e94          0x60c        1548  Read-only const 
.text                   0x9d05a4a0          0xb64        2916  App's exec code 
.rodata                 0x9d05b004          0xa60        2656  Read-only const 
.text                   0x9d05ba64         0x10f8        4344  App's exec code 
.text.__strtof          0x9d05cb5c          0x380         896   
.rodata                 0x9d05cedc          0x664        1636  Read-only const 
.text                   0x9d05d540          0x2f8         760  App's exec code 
.text.scale             0x9d05d838          0x540        1344   
.rodata                 0x9d05dd78          0x268         616  Read-only const 
.text.strtoul           0x9d05dfe0          0x220         544   
.text.__floatdisf       0x9d05e200          0x220         544   
.text                   0x9d05e420          0x1cc         460  App's exec code 
.text.fround            0x9d05e5ec          0x1a4         420   
.text                   0x9d05e790          0x470        1136  App's exec code 
.text.strtol            0x9d05ec00          0x168         360   
.text.fputc             0x9d05ed68          0x15c         348   
.text._flsbuf           0x9d05eec4          0x12c         300   
.rodata                 0x9d05eff0          0x128         296  Read-only const 
.text                   0x9d05f118          0x120         288  App's exec code 
.rodata                 0x9d05f238          0x208         520  Read-only const 
.text.__ldexpf          0x9d05f440          0x104         260   
.rodata                 0x9d05f544          0x100         256  Read-only const 
.rodata                 0x9d05f644            0x4           4  Read-only const 
.rodata                 0x9d05f648          0x1c8         456  Read-only const 
.text.general_exception 0x9d05f810           0xdc         220   
.text                   0x9d05f8ec           0xd4         212  App's exec code 
.text._mon_putc         0x9d05f9c0           0xb4         180   
.text                   0x9d05fa74           0xa8         168  App's exec code 
.text.atoi              0x9d05fb1c           0xa8         168   
.text.strstr            0x9d05fbc4           0x9c         156   
.text                   0x9d05fc60           0x98         152  App's exec code 
.text.write             0x9d05fcf8           0x94         148   
.rodata                 0x9d05fd8c           0x88         136  Read-only const 
.text.UARTEnable        0x9d05fe14           0x80         128   
.text.strncmp           0x9d05fe94           0x78         120   
.text.IdleI2C2          0x9d05ff0c           0x74         116   
.text.utoa              0x9d05ff80           0x68         104   
.text._sprintf_cdfFnopu 0x9d05ffe8           0x68         104   
.rodata                 0x9d060050           0x68         104  Read-only const 
.text.MasterWriteI2C2   0x9d0600b8           0x60          96   
.rodata                 0x9d060118           0x5c          92  Read-only const 
.text.UARTSetDataRate   0x9d060174           0x5c          92   
.rodata                 0x9d0601d0           0x54          84  Read-only const 
.text.I2CBusIsIdle      0x9d060224           0x54          84   
.text.vsprintf          0x9d060278           0x54          84   
.text.INTEnable         0x9d0602cc           0x50          80   
.text.main_entry        0x9d06031c           0x4c          76   
.text                   0x9d060368           0x4c          76  App's exec code 
.rodata                 0x9d0603b4           0x48          72  Read-only const 
.text.I2CSetFrequency   0x9d0603fc           0x48          72   
.text.I2CGetStatus      0x9d060444           0x44          68   
.text                   0x9d060488           0x44          68  App's exec code 
.text.UARTGetDataRate   0x9d0604cc           0x40          64   
.text.MasterReadI2C2    0x9d06050c           0x40          64   
.text.I2CSetSlaveAddres 0x9d06054c           0x40          64   
.text.itoa              0x9d06058c           0x40          64   
.text.PORTSetPinsDigita 0x9d0605cc           0x3c          60   
.text.PORTSetPinsDigita 0x9d060608           0x3c          60   
.text.UARTConfigure     0x9d060644           0x3c          60   
.text.UARTSetAddress    0x9d060680           0x3c          60   
.text.INTSetVectorPrior 0x9d0606bc           0x38          56   
.text.INTSetVectorSubPr 0x9d0606f4           0x38          56   
.text.UARTWatchForAddre 0x9d06072c           0x38          56   
.text.I2CReceiverEnable 0x9d060764           0x38          56   
.text._bootstrap_except 0x9d06079c           0x38          56   
.text._general_exceptio 0x9d0607d4           0x38          56   
.rodata                 0x9d06080c           0x34          52  Read-only const 
.text.I2CSendByte       0x9d060840           0x34          52   
.text.I2CStart          0x9d060874           0x34          52   
.text.INTConfigureSyste 0x9d0608a8           0x30          48   
.text.I2CRepeatStart    0x9d0608d8           0x30          48   
.text.INTGetVectorPrior 0x9d060908           0x2c          44   
.text.INTGetVectorSubPr 0x9d060934           0x2c          44   
.text.INTClearFlag      0x9d060960           0x28          40   
.text.INTSetFlag        0x9d060988           0x28          40   
.text.INTGetFlag        0x9d0609b0           0x28          40   
.text.INTGetEnable      0x9d0609d8           0x28          40   
.text.UARTSetFifoMode   0x9d060a00           0x28          40   
.text.UARTSetLineContro 0x9d060a28           0x28          40   
.text.I2CEnable         0x9d060a50           0x28          40   
.text.strchr            0x9d060a78           0x28          40   
.text.I2CByteWasAcknowl 0x9d060aa0           0x24          36   
.text.I2CStop           0x9d060ac4           0x24          36   
.text.I2CTransmissionHa 0x9d060ae8           0x24          36   
.text.I2CTransmitterIsR 0x9d060b0c           0x24          36   
.text.tolower           0x9d060b30           0x24          36   
.text.toupper           0x9d060b54           0x24          36   
.text.I2CConfigure      0x9d060b78           0x20          32   
.text.I2CGetByte        0x9d060b98           0x20          32   
.text.I2CReceivedDataIs 0x9d060bb8           0x20          32   
.text.ldiv              0x9d060bd8           0x20          32   
.text.INTRestoreInterru 0x9d060bf8           0x1c          28   
.text.atof              0x9d060c14           0x1c          28   
.text.strtof            0x9d060c30           0x1c          28   
.text.strtodf           0x9d060c4c           0x1c          28   
.text.CheKseg0CacheOff  0x9d060c68           0x18          24   
.text.CheKseg0CacheOn   0x9d060c80           0x18          24   
.rodata                 0x9d060c98           0x18          24  Read-only const 
.text                   0x9d060cb0           0x18          24  App's exec code 
.text.isalnum           0x9d060cc8           0x18          24   
.text.isalpha           0x9d060ce0           0x18          24   
.text.iscntrl           0x9d060cf8           0x18          24   
.text.isdigit           0x9d060d10           0x18          24   
.text.isgraph           0x9d060d28           0x18          24   
.text.islower           0x9d060d40           0x18          24   
.text.isprint           0x9d060d58           0x18          24   
.text.ispunct           0x9d060d70           0x18          24   
.text.isspace           0x9d060d88           0x18          24   
.text.isupper           0x9d060da0           0x18          24   
.text.isxdigit          0x9d060db8           0x18          24   
.rodata.f5pow.f5pow     0x9d060dd0           0x18          24   
.rodata                 0x9d060de8           0x14          20  Read-only const 
.text.UpdateCoreTimer   0x9d060dfc           0x10          16   
.text.OpenCoreTimer     0x9d060e0c            0xc          12   
.text.INTEnableInterrup 0x9d060e18            0x8           8   
.text.INTDisableInterru 0x9d060e20            0x8           8   
.text._on_reset         0x9d060e28            0x8           8   
.text._on_bootstrap     0x9d060e30            0x8           8   
.text.isascii           0x9d060e38            0x8           8   
.text.toascii           0x9d060e40            0x8           8   
.text._tolower          0x9d060e48            0x8           8   
.text._toupper          0x9d060e50            0x8           8   
.rodata                 0x9d060e58            0x8           8  Read-only const 
      Total kseg0_program_mem used  :     0x5c9d0      379344  74.3% of 0x7cb70

kseg0 Boot-Memory Usage
section                    address  length [bytes]      (dec)  Description
-------                 ----------  -------------------------  -----------
         Total kseg0_boot_mem used  :           0           0  

Exception-Memory Usage 
section                    address  length [bytes]      (dec)  Description
-------                 ----------  -------------------------  -----------
.app_excpt              0x9d003180           0x10          16  General-Exception 
.vector_0               0x9d003200            0x8           8  Interrupt Vector 0 
.vector_24              0x9d003500            0x8           8  Interrupt Vector 24 
.vector_32              0x9d003600            0x8           8  Interrupt Vector 32 
.vector_49              0x9d003820            0x8           8  Interrupt Vector 49 
          Total exception_mem used  :        0x30          48  1.2% of 0x1000

kseg1 Boot-Memory Usage
section                    address  length [bytes]      (dec)  Description
-------                 ----------  -------------------------  -----------
.reset                  0x9d004000          0x1e0         480  Reset handler 
.bev_excpt              0x9d004380           0x10          16  BEV-Exception 
         Total kseg1_boot_mem used  :       0x1f0         496  42.5% of 0x490
        --------------------------------------------------------------------------
         Total Program Memory used  :     0x5cbf0      379888  73.6% of 0x7e000
        --------------------------------------------------------------------------


kseg1 Data-Memory Usage
section                    address  length [bytes]      (dec)  Description
-------                 ----------  -------------------------  -----------
.eh_frame               0xa0000000           0x30          48   
.sdata                  0xa0000030           0x14          20  Small init data 
.sbss                   0xa0000044          0x3a0         928  Small uninit data 
.bss                    0xa00003e4         0x10f0        4336  Uninitialized data 
.data                   0xa00014d4          0x358         856  Initialized data 
.bss                    0xa000182c          0x390         912  Uninitialized data 
.data                   0xa0001bbc          0x17c         380  Initialized data 
.bss                    0xa0001d38           0x40          64  Uninitialized data 
.data                   0xa0001d78           0x10          16  Initialized data 
         Total kseg1_data_mem used  :      0x1d88        7560  5.8% of 0x20000
        --------------------------------------------------------------------------
            Total Data Memory used  :      0x1d88        7560  5.8% of 0x20000
        --------------------------------------------------------------------------


Dynamic Data-Memory Reservation
section                    address  length [bytes]      (dec)  Description
-------                 ----------  -------------------------  -----------
heap                    0xa0001d90           0x10          16  Reserved for heap 
stack                   0xa0001db8        0x1e240      123456  Reserved for stack 

        --------------------------------------------------------------------------

Discarded input sections

 .reginfo       0x00000000       0x18 build/default/production/_ext/1246622842/24lcxxx.o
 .reginfo       0x00000000       0x18 build/default/production/_ext/1246622842/25vfxxx.o
 .reginfo       0x00000000       0x18 build/default/production/_ext/1246622842/buzzer.o
 .reginfo       0x00000000       0x18 build/default/production/_ext/1246622842/clock.o
 .reginfo       0x00000000       0x18 build/default/production/_ext/1246622842/company.o
 .reginfo       0x00000000       0x18 build/default/production/_ext/1246622842/des.o
 .reginfo       0x00000000       0x18 build/default/production/_ext/1246622842/disp.o
 .reginfo       0x00000000       0x18 build/default/production/_ext/1246622842/ic_card.o
 .reginfo       0x00000000       0x18 build/default/production/_ext/1246622842/iic.o
 .reginfo       0x00000000       0x18 build/default/production/_ext/1218090624/init.o
 .reginfo       0x00000000       0x18 build/default/production/_ext/1218090624/kernel.o
 .reginfo       0x00000000       0x18 build/default/production/_ext/1246622842/key.o
 .reginfo       0x00000000       0x18 build/default/production/_ext/1246622842/lcd.o
 .reginfo       0x00000000       0x18 build/default/production/_ext/1246622842/lngctrl.o
 .reginfo       0x00000000       0x18 build/default/production/_ext/1246622842/lngdebug.o
 .reginfo       0x00000000       0x18 build/default/production/_ext/1218090624/main.o
 .reginfo       0x00000000       0x18 build/default/production/_ext/1218090624/main_ui.o
 .reginfo       0x00000000       0x18 build/default/production/_ext/1218090624/module_test.o
 .reginfo       0x00000000       0x18 build/default/production/_ext/1246622842/nand.o
 .reginfo       0x00000000       0x18 build/default/production/_ext/1246622842/print.o
 .reginfo       0x00000000       0x18 build/default/production/_ext/1246622842/qry.o
 .reginfo       0x00000000       0x18 build/default/production/_ext/1218090624/sign.o
 .reginfo       0x00000000       0x18 build/default/production/_ext/1246622842/soe.o
 .reginfo       0x00000000       0x18 build/default/production/_ext/1218090624/store.o
 .reginfo       0x00000000       0x18 build/default/production/_ext/1218090624/sysset.o
 .reginfo       0x00000000       0x18 build/default/production/_ext/1246622842/TempDetection.o
 .reginfo       0x00000000       0x18 build/default/production/_ext/1246622842/uart.o
 .reginfo       0x00000000       0x18 build/default/production/_ext/1246622842/gas_log.o
 .reginfo       0x00000000       0x18 build/default/production/_ext/1246622842/gas_log_sp.o
 .reginfo       0x00000000       0x18 d:/program files (x86)/microchip/xc32/v1.30/bin/../lib/gcc/pic32mx/4.5.2/../../../../pic32mx/lib/./proc/32MX795F512L\processor.o
 .reginfo       0x00000000       0x18 d:/program files (x86)/microchip/xc32/v1.30/bin/../lib/gcc/pic32mx/4.5.2/../../../../pic32mx/lib\libmchp_peripheral.a(open_core_timer_lib.o)
 .pdr           0x00000000       0x20 d:/program files (x86)/microchip/xc32/v1.30/bin/../lib/gcc/pic32mx/4.5.2/../../../../pic32mx/lib\libmchp_peripheral.a(open_core_timer_lib.o)
 .reginfo       0x00000000       0x18 d:/program files (x86)/microchip/xc32/v1.30/bin/../lib/gcc/pic32mx/4.5.2/../../../../pic32mx/lib\libmchp_peripheral.a(update_core_timer_lib.o)
 .pdr           0x00000000       0x20 d:/program files (x86)/microchip/xc32/v1.30/bin/../lib/gcc/pic32mx/4.5.2/../../../../pic32mx/lib\libmchp_peripheral.a(update_core_timer_lib.o)
 .reginfo       0x00000000       0x18 d:/program files (x86)/microchip/xc32/v1.30/bin/../lib/gcc/pic32mx/4.5.2/../../../../pic32mx/lib\libmchp_peripheral_32MX795F512L.a(pcache.o)
 .pdr           0x00000000       0x40 d:/program files (x86)/microchip/xc32/v1.30/bin/../lib/gcc/pic32mx/4.5.2/../../../../pic32mx/lib\libmchp_peripheral_32MX795F512L.a(pcache.o)
 .reginfo       0x00000000       0x18 d:/program files (x86)/microchip/xc32/v1.30/bin/../lib/gcc/pic32mx/4.5.2/../../../../pic32mx/lib\libmchp_peripheral_32MX795F512L.a(int_configure_system_lib.o)
 .pdr           0x00000000       0x20 d:/program files (x86)/microchip/xc32/v1.30/bin/../lib/gcc/pic32mx/4.5.2/../../../../pic32mx/lib\libmchp_peripheral_32MX795F512L.a(int_configure_system_lib.o)
 .reginfo       0x00000000       0x18 d:/program files (x86)/microchip/xc32/v1.30/bin/../lib/gcc/pic32mx/4.5.2/../../../../pic32mx/lib\libmchp_peripheral_32MX795F512L.a(int_enable_interrupts_lib.o)
 .pdr           0x00000000       0x20 d:/program files (x86)/microchip/xc32/v1.30/bin/../lib/gcc/pic32mx/4.5.2/../../../../pic32mx/lib\libmchp_peripheral_32MX795F512L.a(int_enable_interrupts_lib.o)
 .reginfo       0x00000000       0x18 d:/program files (x86)/microchip/xc32/v1.30/bin/../lib/gcc/pic32mx/4.5.2/../../../../pic32mx/lib\libmchp_peripheral_32MX795F512L.a(int_disable_interrupts_lib.o)
 .pdr           0x00000000       0x20 d:/program files (x86)/microchip/xc32/v1.30/bin/../lib/gcc/pic32mx/4.5.2/../../../../pic32mx/lib\libmchp_peripheral_32MX795F512L.a(int_disable_interrupts_lib.o)
 .reginfo       0x00000000       0x18 d:/program files (x86)/microchip/xc32/v1.30/bin/../lib/gcc/pic32mx/4.5.2/../../../../pic32mx/lib\libmchp_peripheral_32MX795F512L.a(int_restore_interrupts_lib.o)
 .pdr           0x00000000       0x20 d:/program files (x86)/microchip/xc32/v1.30/bin/../lib/gcc/pic32mx/4.5.2/../../../../pic32mx/lib\libmchp_peripheral_32MX795F512L.a(int_restore_interrupts_lib.o)
 .reginfo       0x00000000       0x18 d:/program files (x86)/microchip/xc32/v1.30/bin/../lib/gcc/pic32mx/4.5.2/../../../../pic32mx/lib\libmchp_peripheral_32MX795F512L.a(int_tbl_lib.o)
 .pdr           0x00000000      0x120 d:/program files (x86)/microchip/xc32/v1.30/bin/../lib/gcc/pic32mx/4.5.2/../../../../pic32mx/lib\libmchp_peripheral_32MX795F512L.a(int_tbl_lib.o)
 .reginfo       0x00000000       0x18 d:/program files (x86)/microchip/xc32/v1.30/bin/../lib/gcc/pic32mx/4.5.2/../../../../pic32mx/lib\libmchp_peripheral_32MX795F512L.a(port_set_pins_digital_in_lib.o)
 .pdr           0x00000000       0x20 d:/program files (x86)/microchip/xc32/v1.30/bin/../lib/gcc/pic32mx/4.5.2/../../../../pic32mx/lib\libmchp_peripheral_32MX795F512L.a(port_set_pins_digital_in_lib.o)
 .reginfo       0x00000000       0x18 d:/program files (x86)/microchip/xc32/v1.30/bin/../lib/gcc/pic32mx/4.5.2/../../../../pic32mx/lib\libmchp_peripheral_32MX795F512L.a(port_set_pins_digital_out_lib.o)
 .pdr           0x00000000       0x20 d:/program files (x86)/microchip/xc32/v1.30/bin/../lib/gcc/pic32mx/4.5.2/../../../../pic32mx/lib\libmchp_peripheral_32MX795F512L.a(port_set_pins_digital_out_lib.o)
 .reginfo       0x00000000       0x18 d:/program files (x86)/microchip/xc32/v1.30/bin/../lib/gcc/pic32mx/4.5.2/../../../../pic32mx/lib\libmchp_peripheral_32MX795F512L.a(_ports_tbl_libp.o)
 .pdr           0x00000000        0x0 d:/program files (x86)/microchip/xc32/v1.30/bin/../lib/gcc/pic32mx/4.5.2/../../../../pic32mx/lib\libmchp_peripheral_32MX795F512L.a(_ports_tbl_libp.o)
 .reginfo       0x00000000       0x18 d:/program files (x86)/microchip/xc32/v1.30/bin/../lib/gcc/pic32mx/4.5.2/../../../../pic32mx/lib\libmchp_peripheral_32MX795F512L.a(uart_lib.o)
 .pdr           0x00000000      0x100 d:/program files (x86)/microchip/xc32/v1.30/bin/../lib/gcc/pic32mx/4.5.2/../../../../pic32mx/lib\libmchp_peripheral_32MX795F512L.a(uart_lib.o)
 .reginfo       0x00000000       0x18 d:/program files (x86)/microchip/xc32/v1.30/bin/../lib/gcc/pic32mx/4.5.2/../../../../pic32mx/lib\libmchp_peripheral_32MX795F512L.a(idle_i2c2_lib_legacy.o)
 .pdr           0x00000000       0x20 d:/program files (x86)/microchip/xc32/v1.30/bin/../lib/gcc/pic32mx/4.5.2/../../../../pic32mx/lib\libmchp_peripheral_32MX795F512L.a(idle_i2c2_lib_legacy.o)
 .reginfo       0x00000000       0x18 d:/program files (x86)/microchip/xc32/v1.30/bin/../lib/gcc/pic32mx/4.5.2/../../../../pic32mx/lib\libmchp_peripheral_32MX795F512L.a(master_read_i2c2_lib_legacy.o)
 .pdr           0x00000000       0x20 d:/program files (x86)/microchip/xc32/v1.30/bin/../lib/gcc/pic32mx/4.5.2/../../../../pic32mx/lib\libmchp_peripheral_32MX795F512L.a(master_read_i2c2_lib_legacy.o)
 .reginfo       0x00000000       0x18 d:/program files (x86)/microchip/xc32/v1.30/bin/../lib/gcc/pic32mx/4.5.2/../../../../pic32mx/lib\libmchp_peripheral_32MX795F512L.a(master_write_i2c2_lib_legacy.o)
 .pdr           0x00000000       0x20 d:/program files (x86)/microchip/xc32/v1.30/bin/../lib/gcc/pic32mx/4.5.2/../../../../pic32mx/lib\libmchp_peripheral_32MX795F512L.a(master_write_i2c2_lib_legacy.o)
 .reginfo       0x00000000       0x18 d:/program files (x86)/microchip/xc32/v1.30/bin/../lib/gcc/pic32mx/4.5.2/../../../../pic32mx/lib\libmchp_peripheral_32MX795F512L.a(I2CBusIsIdle.o)
 .pdr           0x00000000       0x20 d:/program files (x86)/microchip/xc32/v1.30/bin/../lib/gcc/pic32mx/4.5.2/../../../../pic32mx/lib\libmchp_peripheral_32MX795F512L.a(I2CBusIsIdle.o)
 .reginfo       0x00000000       0x18 d:/program files (x86)/microchip/xc32/v1.30/bin/../lib/gcc/pic32mx/4.5.2/../../../../pic32mx/lib\libmchp_peripheral_32MX795F512L.a(I2CByteWasAcknowledged.o)
 .pdr           0x00000000       0x20 d:/program files (x86)/microchip/xc32/v1.30/bin/../lib/gcc/pic32mx/4.5.2/../../../../pic32mx/lib\libmchp_peripheral_32MX795F512L.a(I2CByteWasAcknowledged.o)
 .reginfo       0x00000000       0x18 d:/program files (x86)/microchip/xc32/v1.30/bin/../lib/gcc/pic32mx/4.5.2/../../../../pic32mx/lib\libmchp_peripheral_32MX795F512L.a(I2CConfigure.o)
 .pdr           0x00000000       0x20 d:/program files (x86)/microchip/xc32/v1.30/bin/../lib/gcc/pic32mx/4.5.2/../../../../pic32mx/lib\libmchp_peripheral_32MX795F512L.a(I2CConfigure.o)
 .reginfo       0x00000000       0x18 d:/program files (x86)/microchip/xc32/v1.30/bin/../lib/gcc/pic32mx/4.5.2/../../../../pic32mx/lib\libmchp_peripheral_32MX795F512L.a(I2CEnable.o)
 .pdr           0x00000000       0x20 d:/program files (x86)/microchip/xc32/v1.30/bin/../lib/gcc/pic32mx/4.5.2/../../../../pic32mx/lib\libmchp_peripheral_32MX795F512L.a(I2CEnable.o)
 .reginfo       0x00000000       0x18 d:/program files (x86)/microchip/xc32/v1.30/bin/../lib/gcc/pic32mx/4.5.2/../../../../pic32mx/lib\libmchp_peripheral_32MX795F512L.a(I2CGetByte.o)
 .pdr           0x00000000       0x20 d:/program files (x86)/microchip/xc32/v1.30/bin/../lib/gcc/pic32mx/4.5.2/../../../../pic32mx/lib\libmchp_peripheral_32MX795F512L.a(I2CGetByte.o)
 .reginfo       0x00000000       0x18 d:/program files (x86)/microchip/xc32/v1.30/bin/../lib/gcc/pic32mx/4.5.2/../../../../pic32mx/lib\libmchp_peripheral_32MX795F512L.a(I2CGetStatus.o)
 .pdr           0x00000000       0x20 d:/program files (x86)/microchip/xc32/v1.30/bin/../lib/gcc/pic32mx/4.5.2/../../../../pic32mx/lib\libmchp_peripheral_32MX795F512L.a(I2CGetStatus.o)
 .reginfo       0x00000000       0x18 d:/program files (x86)/microchip/xc32/v1.30/bin/../lib/gcc/pic32mx/4.5.2/../../../../pic32mx/lib\libmchp_peripheral_32MX795F512L.a(I2CReceivedDataIsAvailable.o)
 .pdr           0x00000000       0x20 d:/program files (x86)/microchip/xc32/v1.30/bin/../lib/gcc/pic32mx/4.5.2/../../../../pic32mx/lib\libmchp_peripheral_32MX795F512L.a(I2CReceivedDataIsAvailable.o)
 .reginfo       0x00000000       0x18 d:/program files (x86)/microchip/xc32/v1.30/bin/../lib/gcc/pic32mx/4.5.2/../../../../pic32mx/lib\libmchp_peripheral_32MX795F512L.a(I2CReceiverEnable.o)
 .pdr           0x00000000       0x20 d:/program files (x86)/microchip/xc32/v1.30/bin/../lib/gcc/pic32mx/4.5.2/../../../../pic32mx/lib\libmchp_peripheral_32MX795F512L.a(I2CReceiverEnable.o)
 .reginfo       0x00000000       0x18 d:/program files (x86)/microchip/xc32/v1.30/bin/../lib/gcc/pic32mx/4.5.2/../../../../pic32mx/lib\libmchp_peripheral_32MX795F512L.a(I2CRepeatStart.o)
 .pdr           0x00000000       0x20 d:/program files (x86)/microchip/xc32/v1.30/bin/../lib/gcc/pic32mx/4.5.2/../../../../pic32mx/lib\libmchp_peripheral_32MX795F512L.a(I2CRepeatStart.o)
 .reginfo       0x00000000       0x18 d:/program files (x86)/microchip/xc32/v1.30/bin/../lib/gcc/pic32mx/4.5.2/../../../../pic32mx/lib\libmchp_peripheral_32MX795F512L.a(I2CSendByte.o)
 .pdr           0x00000000       0x20 d:/program files (x86)/microchip/xc32/v1.30/bin/../lib/gcc/pic32mx/4.5.2/../../../../pic32mx/lib\libmchp_peripheral_32MX795F512L.a(I2CSendByte.o)
 .reginfo       0x00000000       0x18 d:/program files (x86)/microchip/xc32/v1.30/bin/../lib/gcc/pic32mx/4.5.2/../../../../pic32mx/lib\libmchp_peripheral_32MX795F512L.a(I2CSetFrequency.o)
 .pdr           0x00000000       0x20 d:/program files (x86)/microchip/xc32/v1.30/bin/../lib/gcc/pic32mx/4.5.2/../../../../pic32mx/lib\libmchp_peripheral_32MX795F512L.a(I2CSetFrequency.o)
 .reginfo       0x00000000       0x18 d:/program files (x86)/microchip/xc32/v1.30/bin/../lib/gcc/pic32mx/4.5.2/../../../../pic32mx/lib\libmchp_peripheral_32MX795F512L.a(I2CSetSlaveAddress.o)
 .pdr           0x00000000       0x20 d:/program files (x86)/microchip/xc32/v1.30/bin/../lib/gcc/pic32mx/4.5.2/../../../../pic32mx/lib\libmchp_peripheral_32MX795F512L.a(I2CSetSlaveAddress.o)
 .reginfo       0x00000000       0x18 d:/program files (x86)/microchip/xc32/v1.30/bin/../lib/gcc/pic32mx/4.5.2/../../../../pic32mx/lib\libmchp_peripheral_32MX795F512L.a(I2CStart.o)
 .pdr           0x00000000       0x20 d:/program files (x86)/microchip/xc32/v1.30/bin/../lib/gcc/pic32mx/4.5.2/../../../../pic32mx/lib\libmchp_peripheral_32MX795F512L.a(I2CStart.o)
 .reginfo       0x00000000       0x18 d:/program files (x86)/microchip/xc32/v1.30/bin/../lib/gcc/pic32mx/4.5.2/../../../../pic32mx/lib\libmchp_peripheral_32MX795F512L.a(I2CStop.o)
 .pdr           0x00000000       0x20 d:/program files (x86)/microchip/xc32/v1.30/bin/../lib/gcc/pic32mx/4.5.2/../../../../pic32mx/lib\libmchp_peripheral_32MX795F512L.a(I2CStop.o)
 .reginfo       0x00000000       0x18 d:/program files (x86)/microchip/xc32/v1.30/bin/../lib/gcc/pic32mx/4.5.2/../../../../pic32mx/lib\libmchp_peripheral_32MX795F512L.a(I2CTransmissionHasCompleted.o)
 .pdr           0x00000000       0x20 d:/program files (x86)/microchip/xc32/v1.30/bin/../lib/gcc/pic32mx/4.5.2/../../../../pic32mx/lib\libmchp_peripheral_32MX795F512L.a(I2CTransmissionHasCompleted.o)
 .reginfo       0x00000000       0x18 d:/program files (x86)/microchip/xc32/v1.30/bin/../lib/gcc/pic32mx/4.5.2/../../../../pic32mx/lib\libmchp_peripheral_32MX795F512L.a(I2CTransmitterIsReady.o)
 .pdr           0x00000000       0x20 d:/program files (x86)/microchip/xc32/v1.30/bin/../lib/gcc/pic32mx/4.5.2/../../../../pic32mx/lib\libmchp_peripheral_32MX795F512L.a(I2CTransmitterIsReady.o)
 .reginfo       0x00000000       0x18 d:/program files (x86)/microchip/xc32/v1.30/bin/../lib/gcc/pic32mx/4.5.2/../../../../pic32mx/lib\libmchp_peripheral_32MX795F512L.a(I2CPrivate.o)
 .pdr           0x00000000        0x0 d:/program files (x86)/microchip/xc32/v1.30/bin/../lib/gcc/pic32mx/4.5.2/../../../../pic32mx/lib\libmchp_peripheral_32MX795F512L.a(I2CPrivate.o)
 .reginfo       0x00000000       0x18 d:/program files (x86)/microchip/xc32/v1.30/bin/../lib/gcc/pic32mx/4.5.2\libgcc.a(floatunsisf.o)
 .reginfo       0x00000000       0x18 d:/program files (x86)/microchip/xc32/v1.30/bin/../lib/gcc/pic32mx/4.5.2/../../../../pic32mx/lib\libpic32.a(memcmp.o)
 .reginfo       0x00000000       0x18 d:/program files (x86)/microchip/xc32/v1.30/bin/../lib/gcc/pic32mx/4.5.2/../../../../pic32mx/lib\libpic32.a(memcpy.o)
 .reginfo       0x00000000       0x18 d:/program files (x86)/microchip/xc32/v1.30/bin/../lib/gcc/pic32mx/4.5.2/../../../../pic32mx/lib\libpic32.a(memset.o)
 .reginfo       0x00000000       0x18 d:/program files (x86)/microchip/xc32/v1.30/bin/../lib/gcc/pic32mx/4.5.2/../../../../pic32mx/lib\libpic32.a(strcmp.o)
 .reginfo       0x00000000       0x18 d:/program files (x86)/microchip/xc32/v1.30/bin/../lib/gcc/pic32mx/4.5.2/../../../../pic32mx/lib\libpic32.a(strcpy.o)
 .reginfo       0x00000000       0x18 d:/program files (x86)/microchip/xc32/v1.30/bin/../lib/gcc/pic32mx/4.5.2/../../../../pic32mx/lib\libpic32.a(strlen.o)
 .reginfo       0x00000000       0x18 d:/program files (x86)/microchip/xc32/v1.30/bin/../lib/gcc/pic32mx/4.5.2/../../../../pic32mx/lib\libpic32.a(default-bootstrap-exception-handler.o)
 .reginfo       0x00000000       0x18 d:/program files (x86)/microchip/xc32/v1.30/bin/../lib/gcc/pic32mx/4.5.2/../../../../pic32mx/lib\libpic32.a(default-on-reset.o)
 .reginfo       0x00000000       0x18 d:/program files (x86)/microchip/xc32/v1.30/bin/../lib/gcc/pic32mx/4.5.2/../../../../pic32mx/lib\libpic32.a(default-on-bootstrap.o)
 .reginfo       0x00000000       0x18 d:/program files (x86)/microchip/xc32/v1.30/bin/../lib/gcc/pic32mx/4.5.2/../../../../pic32mx/lib\libpic32.a(default-nmi-handler.o)
 .reginfo       0x00000000       0x18 d:/program files (x86)/microchip/xc32/v1.30/bin/../lib/gcc/pic32mx/4.5.2/../../../../pic32mx/lib\libpic32.a(pic32_software_reset.o)
 .reginfo       0x00000000       0x18 d:/program files (x86)/microchip/xc32/v1.30/bin/../lib/gcc/pic32mx/4.5.2/../../../../pic32mx/lib\libpic32.a(general-exception.o)
 .reginfo       0x00000000       0x18 d:/program files (x86)/microchip/xc32/v1.30/bin/../lib/gcc/pic32mx/4.5.2/../../../../pic32mx/lib\libpic32.a(default-general-exception-handler.o)
 .reginfo       0x00000000       0x18 d:/program files (x86)/microchip/xc32/v1.30/bin/../lib/gcc/pic32mx/4.5.2/../../../../pic32mx/lib\libm.a(fp32.o)
 .reginfo       0x00000000       0x18 d:/program files (x86)/microchip/xc32/v1.30/bin/../lib/gcc/pic32mx/4.5.2/../../../../pic32mx/lib\libc.a(atoi.o)
 .reginfo       0x00000000       0x18 d:/program files (x86)/microchip/xc32/v1.30/bin/../lib/gcc/pic32mx/4.5.2/../../../../pic32mx/lib\libc.a(cldiv.o)
 .reginfo       0x00000000       0x18 d:/program files (x86)/microchip/xc32/v1.30/bin/../lib/gcc/pic32mx/4.5.2/../../../../pic32mx/lib\libc.a(ctype.o)
 .reginfo       0x00000000       0x18 d:/program files (x86)/microchip/xc32/v1.30/bin/../lib/gcc/pic32mx/4.5.2/../../../../pic32mx/lib\libc.a(itoa.o)
 .reginfo       0x00000000       0x18 d:/program files (x86)/microchip/xc32/v1.30/bin/../lib/gcc/pic32mx/4.5.2/../../../../pic32mx/lib\libc.a(strchr.o)
 .reginfo       0x00000000       0x18 d:/program files (x86)/microchip/xc32/v1.30/bin/../lib/gcc/pic32mx/4.5.2/../../../../pic32mx/lib\libc.a(strstr.o)
 .reginfo       0x00000000       0x18 d:/program files (x86)/microchip/xc32/v1.30/bin/../lib/gcc/pic32mx/4.5.2/../../../../pic32mx/lib\libc.a(strtol.o)
 .reginfo       0x00000000       0x18 d:/program files (x86)/microchip/xc32/v1.30/bin/../lib/gcc/pic32mx/4.5.2/../../../../pic32mx/lib\libc.a(atof.o)
 .reginfo       0x00000000       0x18 d:/program files (x86)/microchip/xc32/v1.30/bin/../lib/gcc/pic32mx/4.5.2/../../../../pic32mx/lib\libc.a(sprintf_cdfFnopuxX.eo)
 .reginfo       0x00000000       0x18 d:/program files (x86)/microchip/xc32/v1.30/bin/../lib/gcc/pic32mx/4.5.2/../../../../pic32mx/lib\libc.a(vsprintf.o)
 .reginfo       0x00000000       0x18 d:/program files (x86)/microchip/xc32/v1.30/bin/../lib/gcc/pic32mx/4.5.2/../../../../pic32mx/lib\libc.a(ctypef.o)
 .reginfo       0x00000000       0x18 d:/program files (x86)/microchip/xc32/v1.30/bin/../lib/gcc/pic32mx/4.5.2/../../../../pic32mx/lib\libc.a(errno.o)
 .reginfo       0x00000000       0x18 d:/program files (x86)/microchip/xc32/v1.30/bin/../lib/gcc/pic32mx/4.5.2/../../../../pic32mx/lib\libc.a(strncmp.o)
 .reginfo       0x00000000       0x18 d:/program files (x86)/microchip/xc32/v1.30/bin/../lib/gcc/pic32mx/4.5.2/../../../../pic32mx/lib\libc.a(strtof.o)
 .reginfo       0x00000000       0x18 d:/program files (x86)/microchip/xc32/v1.30/bin/../lib/gcc/pic32mx/4.5.2/../../../../pic32mx/lib\libc.a(doprnt_cdfFnopuxX.eo)
 .reginfo       0x00000000       0x18 d:/program files (x86)/microchip/xc32/v1.30/bin/../lib/gcc/pic32mx/4.5.2/../../../../pic32mx/lib\libc.a(doprnt.o)
 .reginfo       0x00000000       0x18 d:/program files (x86)/microchip/xc32/v1.30/bin/../lib/gcc/pic32mx/4.5.2/../../../../pic32mx/lib\libc.a(_fputc_simple.o)
 .reginfo       0x00000000       0x18 d:/program files (x86)/microchip/xc32/v1.30/bin/../lib/gcc/pic32mx/4.5.2/../../../../pic32mx/lib\libc.a(powersf.o)
 .reginfo       0x00000000       0x18 d:/program files (x86)/microchip/xc32/v1.30/bin/../lib/gcc/pic32mx/4.5.2/../../../../pic32mx/lib\libc.a(_iob.o)
 .reginfo       0x00000000       0x18 d:/program files (x86)/microchip/xc32/v1.30/bin/../lib/gcc/pic32mx/4.5.2/../../../../pic32mx/lib\libc.a(_flsbuf_simple.o)
 .reginfo       0x00000000       0x18 d:/program files (x86)/microchip/xc32/v1.30/bin/../lib/gcc/pic32mx/4.5.2/../../../../pic32mx/lib\libpic32.a(write.o)
 .reginfo       0x00000000       0x18 d:/program files (x86)/microchip/xc32/v1.30/bin/../lib/gcc/pic32mx/4.5.2/../../../../pic32mx/lib\libpic32.a(_mon_putc.o)
 .reginfo       0x00000000       0x18 d:/program files (x86)/microchip/xc32/v1.30/bin/../lib/gcc/pic32mx/4.5.2/../../../../pic32mx/lib\libpic32.a(xc32_uart.o)
 .reginfo       0x00000000       0x18 d:/program files (x86)/microchip/xc32/v1.30/bin/../lib/gcc/pic32mx/4.5.2/../../../../pic32mx/lib\libm.a(fpmod32.o)
 .reginfo       0x00000000       0x18 d:/program files (x86)/microchip/xc32/v1.30/bin/../lib/gcc/pic32mx/4.5.2/../../../../pic32mx/lib\libe.a(_floatdisf.o)
 .reginfo       0x00000000       0x18 d:/program files (x86)/microchip/xc32/v1.30/bin/../lib/gcc/pic32mx/4.5.2/../../../../pic32mx/lib\libe.a(_strtof.o)
 .reginfo       0x00000000       0x18 d:/program files (x86)/microchip/xc32/v1.30/bin/../lib/gcc/pic32mx/4.5.2/../../../../pic32mx/lib\libe.a(_ldexpf.o)
 .reginfo       0x00000000       0x18 d:/program files (x86)/microchip/xc32/v1.30/bin/../lib/gcc/pic32mx/4.5.2\libgcc.a(_floatundisf.o)
 .reginfo       0x00000000       0x18 d:/program files (x86)/microchip/xc32/v1.30/bin/../lib/gcc/pic32mx/4.5.2\libgcc.a(_udivdi3.o)
 .reginfo       0x00000000       0x18 d:/program files (x86)/microchip/xc32/v1.30/bin/../lib/gcc/pic32mx/4.5.2\libgcc.a(_umoddi3.o)
 .reginfo       0x00000000       0x18 d:/program files (x86)/microchip/xc32/v1.30/bin/../lib/gcc/pic32mx/4.5.2/../../../../pic32mx/lib\debug-exception-return.o

Memory Configuration

Name             Origin             Length             Attributes
kseg0_program_mem 0x9d004490         0x0007cb70         xr
kseg0_boot_mem   0x9d003000         0x00000000
exception_mem    0x9d003000         0x00001000
kseg1_boot_mem   0x9d004000         0x00000490
debug_exec_mem   0xbfc02000         0x00000ff0
config3          0xbfc02ff0         0x00000004
config2          0xbfc02ff4         0x00000004
config1          0xbfc02ff8         0x00000004
config0          0xbfc02ffc         0x00000004
kseg1_data_mem   0xa0000000         0x00020000         w !x
sfrs             0xbf800000         0x00100000
configsfrs       0xbfc02ff0         0x00000010
*default*        0x00000000         0xffffffff

Linker script and memory map

LOAD d:/program files (x86)/microchip/xc32/v1.30/bin/../lib/gcc/pic32mx/4.5.2/../../../../pic32mx/lib/./proc/32MX795F512L/crt0_mips32r2.o
LOAD build/default/production/_ext/1246622842/24lcxxx.o
LOAD build/default/production/_ext/1246622842/25vfxxx.o
LOAD build/default/production/_ext/1246622842/buzzer.o
LOAD build/default/production/_ext/1246622842/clock.o
LOAD build/default/production/_ext/1246622842/company.o
LOAD build/default/production/_ext/1246622842/des.o
LOAD build/default/production/_ext/1246622842/disp.o
LOAD build/default/production/_ext/1246622842/ic_card.o
LOAD build/default/production/_ext/1246622842/iic.o
LOAD build/default/production/_ext/1218090624/init.o
LOAD build/default/production/_ext/1218090624/kernel.o
LOAD build/default/production/_ext/1246622842/key.o
LOAD build/default/production/_ext/1246622842/lcd.o
LOAD build/default/production/_ext/1246622842/lngctrl.o
LOAD build/default/production/_ext/1246622842/lngdebug.o
LOAD build/default/production/_ext/1218090624/main.o
LOAD build/default/production/_ext/1218090624/main_ui.o
LOAD build/default/production/_ext/1218090624/module_test.o
LOAD build/default/production/_ext/1246622842/nand.o
LOAD build/default/production/_ext/1246622842/print.o
LOAD build/default/production/_ext/1246622842/qry.o
LOAD build/default/production/_ext/1218090624/sign.o
LOAD build/default/production/_ext/1246622842/soe.o
LOAD build/default/production/_ext/1218090624/store.o
LOAD build/default/production/_ext/1218090624/sysset.o
LOAD build/default/production/_ext/1246622842/TempDetection.o
LOAD build/default/production/_ext/1246622842/uart.o
LOAD build/default/production/_ext/1246622842/gas_log.o
LOAD build/default/production/_ext/1246622842/gas_log_sp.o
                0x00000001                __MPLAB_BUILD = 0x1
                0x00000400                PROVIDE (_min_stack_size, 0x400)
LOAD d:/program files (x86)/microchip/xc32/v1.30/bin/../lib/gcc/pic32mx/4.5.2/../../../../pic32mx/lib/./proc/32MX795F512L\processor.o
START GROUP
LOAD d:/program files (x86)/microchip/xc32/v1.30/bin/../lib/gcc/pic32mx/4.5.2/../../../../pic32mx/lib\libmchp_peripheral.a
END GROUP
START GROUP
LOAD d:/program files (x86)/microchip/xc32/v1.30/bin/../lib/gcc/pic32mx/4.5.2/../../../../pic32mx/lib\libmchp_peripheral_32MX795F512L.a
END GROUP
                0x00000001                PROVIDE (_vector_spacing, 0x1)
                0x9d003000                _ebase_address = 0x9d003000
                0x9d004000                _RESET_ADDR = 0x9d004000
                0x9d004380                _BEV_EXCPT_ADDR = 0x9d004380
                0x9d004480                _DBG_EXCPT_ADDR = 0x9d004480
                0xbfc02000                _DBG_CODE_ADDR = 0xbfc02000
                0x00000ff0                _DBG_CODE_SIZE = 0xff0
                0x9d003180                _GEN_EXCPT_ADDR = (_ebase_address + 0x180)

.config_BFC02FF0
                0xbfc02ff0        0x4
 *(.config_BFC02FF0)
 .config_BFC02FF0
                0xbfc02ff0        0x4 build/default/production/_ext/1218090624/main.o

.config_BFC02FF4
                0xbfc02ff4        0x4
 *(.config_BFC02FF4)
 .config_BFC02FF4
                0xbfc02ff4        0x4 build/default/production/_ext/1218090624/main.o

.config_BFC02FF8
                0xbfc02ff8        0x4
 *(.config_BFC02FF8)
 .config_BFC02FF8
                0xbfc02ff8        0x4 build/default/production/_ext/1218090624/main.o

.config_BFC02FFC
                0xbfc02ffc        0x4
 *(.config_BFC02FFC)
 .config_BFC02FFC
                0xbfc02ffc        0x4 build/default/production/_ext/1218090624/main.o
                0xbfc02000                PROVIDE (_DBG_CODE_ADDR, 0xbfc02000)
                0x00000ff0                PROVIDE (_DBG_CODE_SIZE, 0xff0)

.reset          0x9d004000      0x1e0
 *(.reset)
 .reset         0x9d004000      0x1e0 d:/program files (x86)/microchip/xc32/v1.30/bin/../lib/gcc/pic32mx/4.5.2/../../../../pic32mx/lib/./proc/32MX795F512L/crt0_mips32r2.o
                0x9d004000                _reset
 *(.reset.startup)

.bev_excpt      0x9d004380       0x10
 *(.bev_handler)
 .bev_handler   0x9d004380       0x10 d:/program files (x86)/microchip/xc32/v1.30/bin/../lib/gcc/pic32mx/4.5.2/../../../../pic32mx/lib/./proc/32MX795F512L/crt0_mips32r2.o

.dbg_excpt      0x9d004480        0x0
                0x9d004480                . = (. + DEFINED (_DEBUGGER)?0x8:0x0)

.dbg_code       0xbfc02000        0x0
                0xbfc02000                . = (. + DEFINED (_DEBUGGER)?_DBG_CODE_SIZE:0x0)

.app_excpt      0x9d003180       0x10
 *(.gen_handler)
 .gen_handler   0x9d003180       0x10 d:/program files (x86)/microchip/xc32/v1.30/bin/../lib/gcc/pic32mx/4.5.2/../../../../pic32mx/lib/./proc/32MX795F512L/crt0_mips32r2.o

.vector_0       0x9d003200        0x8
 *(.vector_0)
 .vector_0      0x9d003200        0x8 build/default/production/_ext/1218090624/init.o
                0x9d003200                __vector_dispatch_0
                0x00000001                ASSERT (((_vector_spacing == 0x0) || (SIZEOF (.vector_0) <= (_vector_spacing << 0x5))), function at exception vector 0 too large)

.vector_1       0x9d003220        0x0
 *(.vector_1)
                0x00000001                ASSERT (((_vector_spacing == 0x0) || (SIZEOF (.vector_1) <= (_vector_spacing << 0x5))), function at exception vector 1 too large)

.vector_2       0x9d003240        0x0
 *(.vector_2)
                0x00000001                ASSERT (((_vector_spacing == 0x0) || (SIZEOF (.vector_2) <= (_vector_spacing << 0x5))), function at exception vector 2 too large)

.vector_3       0x9d003260        0x0
 *(.vector_3)
                0x00000001                ASSERT (((_vector_spacing == 0x0) || (SIZEOF (.vector_3) <= (_vector_spacing << 0x5))), function at exception vector 3 too large)

.vector_4       0x9d003280        0x0
 *(.vector_4)
                0x00000001                ASSERT (((_vector_spacing == 0x0) || (SIZEOF (.vector_4) <= (_vector_spacing << 0x5))), function at exception vector 4 too large)

.vector_5       0x9d0032a0        0x0
 *(.vector_5)
                0x00000001                ASSERT (((_vector_spacing == 0x0) || (SIZEOF (.vector_5) <= (_vector_spacing << 0x5))), function at exception vector 5 too large)

.vector_6       0x9d0032c0        0x0
 *(.vector_6)
                0x00000001                ASSERT (((_vector_spacing == 0x0) || (SIZEOF (.vector_6) <= (_vector_spacing << 0x5))), function at exception vector 6 too large)

.vector_7       0x9d0032e0        0x0
 *(.vector_7)
                0x00000001                ASSERT (((_vector_spacing == 0x0) || (SIZEOF (.vector_7) <= (_vector_spacing << 0x5))), function at exception vector 7 too large)

.vector_8       0x9d003300        0x0
 *(.vector_8)
                0x00000001                ASSERT (((_vector_spacing == 0x0) || (SIZEOF (.vector_8) <= (_vector_spacing << 0x5))), function at exception vector 8 too large)

.vector_9       0x9d003320        0x0
 *(.vector_9)
                0x00000001                ASSERT (((_vector_spacing == 0x0) || (SIZEOF (.vector_9) <= (_vector_spacing << 0x5))), function at exception vector 9 too large)

.vector_10      0x9d003340        0x0
 *(.vector_10)
                0x00000001                ASSERT (((_vector_spacing == 0x0) || (SIZEOF (.vector_10) <= (_vector_spacing << 0x5))), function at exception vector 10 too large)

.vector_11      0x9d003360        0x0
 *(.vector_11)
                0x00000001                ASSERT (((_vector_spacing == 0x0) || (SIZEOF (.vector_11) <= (_vector_spacing << 0x5))), function at exception vector 11 too large)

.vector_12      0x9d003380        0x0
 *(.vector_12)
                0x00000001                ASSERT (((_vector_spacing == 0x0) || (SIZEOF (.vector_12) <= (_vector_spacing << 0x5))), function at exception vector 12 too large)

.vector_13      0x9d0033a0        0x0
 *(.vector_13)
                0x00000001                ASSERT (((_vector_spacing == 0x0) || (SIZEOF (.vector_13) <= (_vector_spacing << 0x5))), function at exception vector 13 too large)

.vector_14      0x9d0033c0        0x0
 *(.vector_14)
                0x00000001                ASSERT (((_vector_spacing == 0x0) || (SIZEOF (.vector_14) <= (_vector_spacing << 0x5))), function at exception vector 14 too large)

.vector_15      0x9d0033e0        0x0
 *(.vector_15)
                0x00000001                ASSERT (((_vector_spacing == 0x0) || (SIZEOF (.vector_15) <= (_vector_spacing << 0x5))), function at exception vector 15 too large)

.vector_16      0x9d003400        0x0
 *(.vector_16)
                0x00000001                ASSERT (((_vector_spacing == 0x0) || (SIZEOF (.vector_16) <= (_vector_spacing << 0x5))), function at exception vector 16 too large)

.vector_17      0x9d003420        0x0
 *(.vector_17)
                0x00000001                ASSERT (((_vector_spacing == 0x0) || (SIZEOF (.vector_17) <= (_vector_spacing << 0x5))), function at exception vector 17 too large)

.vector_18      0x9d003440        0x0
 *(.vector_18)
                0x00000001                ASSERT (((_vector_spacing == 0x0) || (SIZEOF (.vector_18) <= (_vector_spacing << 0x5))), function at exception vector 18 too large)

.vector_19      0x9d003460        0x0
 *(.vector_19)
                0x00000001                ASSERT (((_vector_spacing == 0x0) || (SIZEOF (.vector_19) <= (_vector_spacing << 0x5))), function at exception vector 19 too large)

.vector_20      0x9d003480        0x0
 *(.vector_20)
                0x00000001                ASSERT (((_vector_spacing == 0x0) || (SIZEOF (.vector_20) <= (_vector_spacing << 0x5))), function at exception vector 20 too large)

.vector_21      0x9d0034a0        0x0
 *(.vector_21)
                0x00000001                ASSERT (((_vector_spacing == 0x0) || (SIZEOF (.vector_21) <= (_vector_spacing << 0x5))), function at exception vector 21 too large)

.vector_22      0x9d0034c0        0x0
 *(.vector_22)
                0x00000001                ASSERT (((_vector_spacing == 0x0) || (SIZEOF (.vector_22) <= (_vector_spacing << 0x5))), function at exception vector 22 too large)

.vector_23      0x9d0034e0        0x0
 *(.vector_23)
                0x00000001                ASSERT (((_vector_spacing == 0x0) || (SIZEOF (.vector_23) <= (_vector_spacing << 0x5))), function at exception vector 23 too large)

.vector_24      0x9d003500        0x8
 *(.vector_24)
 .vector_24     0x9d003500        0x8 build/default/production/_ext/1246622842/lngdebug.o
                0x9d003500                __vector_dispatch_24
                0x00000001                ASSERT (((_vector_spacing == 0x0) || (SIZEOF (.vector_24) <= (_vector_spacing << 0x5))), function at exception vector 24 too large)

.vector_25      0x9d003520        0x0
 *(.vector_25)
                0x00000001                ASSERT (((_vector_spacing == 0x0) || (SIZEOF (.vector_25) <= (_vector_spacing << 0x5))), function at exception vector 25 too large)

.vector_26      0x9d003540        0x0
 *(.vector_26)
                0x00000001                ASSERT (((_vector_spacing == 0x0) || (SIZEOF (.vector_26) <= (_vector_spacing << 0x5))), function at exception vector 26 too large)

.vector_27      0x9d003560        0x0
 *(.vector_27)
                0x00000001                ASSERT (((_vector_spacing == 0x0) || (SIZEOF (.vector_27) <= (_vector_spacing << 0x5))), function at exception vector 27 too large)

.vector_28      0x9d003580        0x0
 *(.vector_28)
                0x00000001                ASSERT (((_vector_spacing == 0x0) || (SIZEOF (.vector_28) <= (_vector_spacing << 0x5))), function at exception vector 28 too large)

.vector_29      0x9d0035a0        0x0
 *(.vector_29)
                0x00000001                ASSERT (((_vector_spacing == 0x0) || (SIZEOF (.vector_29) <= (_vector_spacing << 0x5))), function at exception vector 29 too large)

.vector_30      0x9d0035c0        0x0
 *(.vector_30)
                0x00000001                ASSERT (((_vector_spacing == 0x0) || (SIZEOF (.vector_30) <= (_vector_spacing << 0x5))), function at exception vector 30 too large)

.vector_31      0x9d0035e0        0x0
 *(.vector_31)
                0x00000001                ASSERT (((_vector_spacing == 0x0) || (SIZEOF (.vector_31) <= (_vector_spacing << 0x5))), function at exception vector 31 too large)

.vector_32      0x9d003600        0x8
 *(.vector_32)
 .vector_32     0x9d003600        0x8 build/default/production/_ext/1246622842/company.o
                0x9d003600                __vector_dispatch_32
                0x00000001                ASSERT (((_vector_spacing == 0x0) || (SIZEOF (.vector_32) <= (_vector_spacing << 0x5))), function at exception vector 32 too large)

.vector_33      0x9d003620        0x0
 *(.vector_33)
                0x00000001                ASSERT (((_vector_spacing == 0x0) || (SIZEOF (.vector_33) <= (_vector_spacing << 0x5))), function at exception vector 33 too large)

.vector_34      0x9d003640        0x0
 *(.vector_34)
                0x00000001                ASSERT (((_vector_spacing == 0x0) || (SIZEOF (.vector_34) <= (_vector_spacing << 0x5))), function at exception vector 34 too large)

.vector_35      0x9d003660        0x0
 *(.vector_35)
                0x00000001                ASSERT (((_vector_spacing == 0x0) || (SIZEOF (.vector_35) <= (_vector_spacing << 0x5))), function at exception vector 35 too large)

.vector_36      0x9d003680        0x0
 *(.vector_36)
                0x00000001                ASSERT (((_vector_spacing == 0x0) || (SIZEOF (.vector_36) <= (_vector_spacing << 0x5))), function at exception vector 36 too large)

.vector_37      0x9d0036a0        0x0
 *(.vector_37)
                0x00000001                ASSERT (((_vector_spacing == 0x0) || (SIZEOF (.vector_37) <= (_vector_spacing << 0x5))), function at exception vector 37 too large)

.vector_38      0x9d0036c0        0x0
 *(.vector_38)
                0x00000001                ASSERT (((_vector_spacing == 0x0) || (SIZEOF (.vector_38) <= (_vector_spacing << 0x5))), function at exception vector 38 too large)

.vector_39      0x9d0036e0        0x0
 *(.vector_39)
                0x00000001                ASSERT (((_vector_spacing == 0x0) || (SIZEOF (.vector_39) <= (_vector_spacing << 0x5))), function at exception vector 39 too large)

.vector_40      0x9d003700        0x0
 *(.vector_40)
                0x00000001                ASSERT (((_vector_spacing == 0x0) || (SIZEOF (.vector_40) <= (_vector_spacing << 0x5))), function at exception vector 40 too large)

.vector_41      0x9d003720        0x0
 *(.vector_41)
                0x00000001                ASSERT (((_vector_spacing == 0x0) || (SIZEOF (.vector_41) <= (_vector_spacing << 0x5))), function at exception vector 41 too large)

.vector_42      0x9d003740        0x0
 *(.vector_42)
                0x00000001                ASSERT (((_vector_spacing == 0x0) || (SIZEOF (.vector_42) <= (_vector_spacing << 0x5))), function at exception vector 42 too large)

.vector_43      0x9d003760        0x0
 *(.vector_43)
                0x00000001                ASSERT (((_vector_spacing == 0x0) || (SIZEOF (.vector_43) <= (_vector_spacing << 0x5))), function at exception vector 43 too large)

.vector_44      0x9d003780        0x0
 *(.vector_44)
                0x00000001                ASSERT (((_vector_spacing == 0x0) || (SIZEOF (.vector_44) <= (_vector_spacing << 0x5))), function at exception vector 44 too large)

.vector_45      0x9d0037a0        0x0
 *(.vector_45)
                0x00000001                ASSERT (((_vector_spacing == 0x0) || (SIZEOF (.vector_45) <= (_vector_spacing << 0x5))), function at exception vector 45 too large)

.vector_46      0x9d0037c0        0x0
 *(.vector_46)
                0x00000001                ASSERT (((_vector_spacing == 0x0) || (SIZEOF (.vector_46) <= (_vector_spacing << 0x5))), function at exception vector 46 too large)

.vector_47      0x9d0037e0        0x0
 *(.vector_47)
                0x00000001                ASSERT (((_vector_spacing == 0x0) || (SIZEOF (.vector_47) <= (_vector_spacing << 0x5))), function at exception vector 47 too large)

.vector_48      0x9d003800        0x0
 *(.vector_48)
                0x00000001                ASSERT (((_vector_spacing == 0x0) || (SIZEOF (.vector_48) <= (_vector_spacing << 0x5))), function at exception vector 48 too large)

.vector_49      0x9d003820        0x8
 *(.vector_49)
 .vector_49     0x9d003820        0x8 build/default/production/_ext/1246622842/uart.o
                0x9d003820                __vector_dispatch_49
                0x00000001                ASSERT (((_vector_spacing == 0x0) || (SIZEOF (.vector_49) <= (_vector_spacing << 0x5))), function at exception vector 49 too large)

.vector_50      0x9d003840        0x0
 *(.vector_50)
                0x00000001                ASSERT (((_vector_spacing == 0x0) || (SIZEOF (.vector_50) <= (_vector_spacing << 0x5))), function at exception vector 50 too large)

.vector_51      0x9d003860        0x0
 *(.vector_51)
                0x00000001                ASSERT (((_vector_spacing == 0x0) || (SIZEOF (.vector_51) <= (_vector_spacing << 0x5))), function at exception vector 51 too large)

.vector_52      0x9d003880        0x0
 *(.vector_52)
                0x00000001                ASSERT (((_vector_spacing == 0x0) || (SIZEOF (.vector_52) <= (_vector_spacing << 0x5))), function at exception vector 52 too large)

.vector_53      0x9d0038a0        0x0
 *(.vector_53)
                0x00000001                ASSERT (((_vector_spacing == 0x0) || (SIZEOF (.vector_53) <= (_vector_spacing << 0x5))), function at exception vector 53 too large)

.vector_54      0x9d0038c0        0x0
 *(.vector_54)
                0x00000001                ASSERT (((_vector_spacing == 0x0) || (SIZEOF (.vector_54) <= (_vector_spacing << 0x5))), function at exception vector 54 too large)

.vector_55      0x9d0038e0        0x0
 *(.vector_55)
                0x00000001                ASSERT (((_vector_spacing == 0x0) || (SIZEOF (.vector_55) <= (_vector_spacing << 0x5))), function at exception vector 55 too large)

.vector_56      0x9d003900        0x0
 *(.vector_56)
                0x00000001                ASSERT (((_vector_spacing == 0x0) || (SIZEOF (.vector_56) <= (_vector_spacing << 0x5))), function at exception vector 56 too large)

.vector_57      0x9d003920        0x0
 *(.vector_57)
                0x00000001                ASSERT (((_vector_spacing == 0x0) || (SIZEOF (.vector_57) <= (_vector_spacing << 0x5))), function at exception vector 57 too large)

.vector_58      0x9d003940        0x0
 *(.vector_58)
                0x00000001                ASSERT (((_vector_spacing == 0x0) || (SIZEOF (.vector_58) <= (_vector_spacing << 0x5))), function at exception vector 58 too large)

.vector_59      0x9d003960        0x0
 *(.vector_59)
                0x00000001                ASSERT (((_vector_spacing == 0x0) || (SIZEOF (.vector_59) <= (_vector_spacing << 0x5))), function at exception vector 59 too large)

.vector_60      0x9d003980        0x0
 *(.vector_60)
                0x00000001                ASSERT (((_vector_spacing == 0x0) || (SIZEOF (.vector_60) <= (_vector_spacing << 0x5))), function at exception vector 60 too large)

.vector_61      0x9d0039a0        0x0
 *(.vector_61)
                0x00000001                ASSERT (((_vector_spacing == 0x0) || (SIZEOF (.vector_61) <= (_vector_spacing << 0x5))), function at exception vector 61 too large)

.vector_62      0x9d0039c0        0x0
 *(.vector_62)
                0x00000001                ASSERT (((_vector_spacing == 0x0) || (SIZEOF (.vector_62) <= (_vector_spacing << 0x5))), function at exception vector 62 too large)

.vector_63      0x9d0039e0        0x0
 *(.vector_63)
                0x00000001                ASSERT (((_vector_spacing == 0x0) || (SIZEOF (.vector_63) <= (_vector_spacing << 0x5))), function at exception vector 63 too large)

.startup
 *(.startup)

.text           0x9d004490        0x0
 *(.stub .gnu.linkonce.t.*)
 *(.text.*personality*)
 *(.mips16.fn.*)
 *(.mips16.call.*)
 *(.gnu.warning)
                0x9d004490                . = ALIGN (0x4)

.init           0x9d004490        0x0
 *crti.o(.init)
 *crtbegin.o(.init)
 *(EXCLUDE_FILE(*crtn.o *crtend?.o *crtend.o) .init)
 *crtend.o(.init)
 *crtn.o(.init)
                0x9d004490                . = ALIGN (0x4)

.fini           0x9d004490        0x0
 *(.fini)
                0x9d004490                . = ALIGN (0x4)

.preinit_array  0x9d004490        0x0
                0x9d004490                PROVIDE (__preinit_array_start, .)
 *(.preinit_array)
                0x9d004490                PROVIDE (__preinit_array_end, .)
                0x9d004490                . = ALIGN (0x4)

.init_array     0x9d004490        0x0
                0x9d004490                PROVIDE (__init_array_start, .)
 *(SORT(.init_array.*))
 *(.init_array)
                0x9d004490                PROVIDE (__init_array_end, .)
                0x9d004490                . = ALIGN (0x4)

.fini_array     0x9d004490        0x0
                0x9d004490                PROVIDE (__fini_array_start, .)
 *(SORT(.fini_array.*))
 *(.fini_array)
                0x9d004490                PROVIDE (__fini_array_end, .)
                0x9d004490                . = ALIGN (0x4)

.ctors          0x9d004490        0x0
 *crtbegin.o(.ctors)
 *crtbegin?.o(.ctors)
 *(EXCLUDE_FILE(*crtend?.o *crtend.o) .ctors)
 *(SORT(.ctors.*))
 *(.ctors)
                0x9d004490                . = ALIGN (0x4)

.dtors          0x9d004490        0x0
 *crtbegin.o(.dtors)
 *crtbegin?.o(.dtors)
 *(EXCLUDE_FILE(*crtend?.o *crtend.o) .dtors)
 *(SORT(.dtors.*))
 *(.dtors)
                0x9d004490                . = ALIGN (0x4)

.rodata         0x9d004490        0x0
 *(.gnu.linkonce.r.*)
 *(.rodata1)
                0x9d004490                . = ALIGN (0x4)

.sdata2         0x9d003000        0x0
 *(.sdata2 .sdata2.* .gnu.linkonce.s2.*)
                0x9d003000                . = ALIGN (0x4)

.sbss2          0x9d003000        0x0
 *(.sbss2 .sbss2.* .gnu.linkonce.sb2.*)
                0x9d003000                . = ALIGN (0x4)

.eh_frame_hdr
 *(.eh_frame_hdr)
                0x9d003000                . = ALIGN (0x4)

.eh_frame
 *(.eh_frame)
                0x9d003000                . = ALIGN (0x4)

.gcc_except_table
 *(.gcc_except_table .gcc_except_table.*)
                0x9d003000                . = ALIGN (0x4)

.dbg_data       0xa0000000        0x0
                0xa0000000                . = (. + DEFINED (_DEBUGGER)?0x200:0x0)

.jcr            0xa0000000        0x0
 *(.jcr)
                0xa0000000                . = ALIGN (0x4)

.eh_frame       0xa0000000       0x30
 *(.eh_frame)
 .eh_frame      0xa0000000       0x20 d:/program files (x86)/microchip/xc32/v1.30/bin/../lib/gcc/pic32mx/4.5.2\libgcc.a(_udivdi3.o)
 .eh_frame      0xa0000020       0x10 d:/program files (x86)/microchip/xc32/v1.30/bin/../lib/gcc/pic32mx/4.5.2\libgcc.a(_umoddi3.o)
                0xa0000030                . = ALIGN (0x4)

.gcc_except_table
 *(.gcc_except_table .gcc_except_table.*)
                0xa0000030                . = ALIGN (0x4)

.persist        0xa0000030        0x0
                0xa0000030                _persist_begin = .
 *(.persist .persist.*)
 *(.pbss .pbss.*)
                0xa0000030                . = ALIGN (0x4)
                0xa0000030                _persist_end = .

.data           0xa0000030        0x0
 *(.gnu.linkonce.d.*)
 *(.data1)
                0xa0000030                . = ALIGN (0x4)
                0xa0000030                . = .
                0xa0008020                _gp = (ALIGN (0x10) + 0x7ff0)

.got            0xa0000030        0x0
 *(.got.plt)
 *(.got)
                0xa0000030                . = ALIGN (0x4)

.sdata          0xa0000030       0x14
                0xa0000030                _sdata_begin = .
 *(.sdata .sdata.* .gnu.linkonce.s.*)
 .sdata         0xa0000030        0x1 build/default/production/_ext/1246622842/key.o
 *fill*         0xa0000031        0x3 
 .sdata         0xa0000034        0x8 build/default/production/_ext/1218090624/sysset.o
                0xa0000034                stword
 .sdata         0xa000003c        0x4 d:/program files (x86)/microchip/xc32/v1.30/bin/../lib/gcc/pic32mx/4.5.2/../../../../pic32mx/lib\libc.a(_iob.o)
                0xa000003c                _Files
 .sdata         0xa0000040        0x4 d:/program files (x86)/microchip/xc32/v1.30/bin/../lib/gcc/pic32mx/4.5.2/../../../../pic32mx/lib\libpic32.a(xc32_uart.o)
                0xa0000040                __XC_UART
                0xa0000044                . = ALIGN (0x4)
                0xa0000044                _sdata_end = .

.lit8
 *(.lit8)

.lit4
 *(.lit4)
                0xa0000044                . = ALIGN (0x4)
                0xa0000044                _data_end = .
                0xa0000044                _bss_begin = .

.sbss           0xa0000044      0x3a0
                0xa0000044                _sbss_begin = .
 *(.dynsbss)
 *(.sbss .sbss.* .gnu.linkonce.sb.*)
 .sbss          0xa0000044        0xc build/default/production/_ext/1246622842/company.o
 .sbss          0xa0000050        0x8 build/default/production/_ext/1246622842/ic_card.o
 .sbss          0xa0000058        0x2 build/default/production/_ext/1218090624/kernel.o
 *fill*         0xa000005a        0x2 
 .sbss          0xa000005c        0x8 build/default/production/_ext/1246622842/lngdebug.o
 .sbss          0xa0000064        0x4 build/default/production/_ext/1218090624/main_ui.o
 .sbss          0xa0000068        0x2 build/default/production/_ext/1218090624/module_test.o
 .sbss          0xa000006a        0x1 build/default/production/_ext/1246622842/qry.o
                0xa000006a                keynumc
 .sbss          0xa000006b        0x4 build/default/production/_ext/1246622842/uart.o
 *fill*         0xa000006f        0x1 
 .sbss          0xa0000070        0x4 d:/program files (x86)/microchip/xc32/v1.30/bin/../lib/gcc/pic32mx/4.5.2/../../../../pic32mx/lib\libc.a(errno.o)
                0xa0000070                errno
 .sbss          0xa0000074        0x1 d:/program files (x86)/microchip/xc32/v1.30/bin/../lib/gcc/pic32mx/4.5.2/../../../../pic32mx/lib\libc.a(_iob.o)
                0xa0000074                _outdone
 *(.scommon)
 *fill*         0xa0000075        0x3 
 .scommon       0xa0000078      0x35c build/default/production/_ext/1246622842/24lcxxx.o
                0xa0000078                eVirtualKey
                0xa0000079                Com_Timeoutnum
                0xa000007c                gTick
                0xa0000080                JQvolu
                0xa0000084                KEY422_ERRBYTE_Tick
                0xa0000088                Qianghao
                0xa000008c                shift_ok
                0xa0000090                Companycrc_rece
                0xa0000092                subfunc
                0xa0000094                PRICE10
                0xa0000098                gass_class
                0xa000009c                car_prem
                0xa00000a0                gReadKeyTick
                0xa00000a4                car_prel
                0xa00000a8                HARDKEYCERA4
                0xa00000a9                SP
                0xa00000aa                cur_max_blacklist
                0xa00000ac                Err_ZhuTime
                0xa00000ad                temp_add_vol
                0xa00000ae                class_sum
                0xa00000b0                RecvUnit_ok
                0xa00000b4                read_keyv_CS
                0xa00000b5                CARD_XIAOFEI
                0xa00000b8                cur_init_lngnum
                0xa00000bc                _b_run_lng_flag
                0xa00000c0                Rec_End_Press
                0xa00000c4                Mini_FD
                0xa00000c8                HQ_PRINT
                0xa00000c9                Car_hui
                0xa00000cc                OKgas_money
                0xa00000d0                GAS_BACKGV
                0xa00000d4                b_fixnop
                0xa00000d8                Companybufleng
                0xa00000d9                uart_state2
                0xa00000dc                hk_disp
                0xa00000e0                Rec_Begin_Press
                0xa00000e4                _b_precool_lng_flag
                0xa00000e8                _b_quan_err
                0xa00000ec                Rec_inxex
                0xa00000f0                cur_max_paraid
                0xa00000f4                re_over_tick2
                0xa00000f8                KY_PRINT
                0xa00000fc                DJ_PRINT
                0xa0000100                eCurRunState
                0xa0000101                _ui_qry_cardinfo_id
                0xa0000104                _b_simu_lng
                0xa0000108                pro_alarm
                0xa000010c                Zttz_Time
                0xa0000110                Rec_debug_ok
                0xa0000114                ID_PRINT
                0xa0000118                FIX_Money
                0xa000011c                card_info_len
                0xa0000120                sq
                0xa0000124                dkpd
                0xa0000125                signfun
                0xa0000126                GasCo
                0xa0000127                Err_JPTime
                0xa0000128                PRICE
                0xa000012c                Keyvol_PRE
                0xa000012d                Pr_gr
                0xa0000130                RQ_PRINT
                0xa0000138                cur_un_float
                0xa000013c                SendStop_False
                0xa0000140                sys_time
                0xa0000146                GasBegin
                0xa0000147                cur_shiftid
                0xa0000148                HUAIKUAI
                0xa000014c                cur_cngdensty
                0xa0000150                Cp_flag
                0xa0000154                cur_calnum_c
                0xa0000158                send_yl_flag
                0xa000015c                cur_cngrate
                0xa0000160                ZK_POWER
                0xa0000164                b_mainui
                0xa0000168                Rec_Card_Preg_int
                0xa000016c                Rec_debug_order
                0xa000016d                cur_keysound
                0xa0000170                cur_card_money
                0xa0000174                _b_running_flag
                0xa0000178                CanGasTime
                0xa000017c                _simu_iic_step
                0xa000017e                Cur_StationNo
                0xa000017f                Car_Hui_ok
                0xa0000180                wk_cont
                0xa0000184                SetValue
                0xa0000188                HQL_PRINT
                0xa000018c                Rec_Card_PreM
                0xa0000190                SendUnit_ok
                0xa0000194                gComRFPos
                0xa0000198                _10ms_tick_
                0xa000019c                IS_GUANLI_CARD_GAS
                0xa00001a0                JE_PRINT
                0xa00001a4                TEST1_tick
                0xa00001a8                WDBJ
                0xa00001ac                mlc
                0xa00001b0                keyv
                0xa00001b4                glc
                0xa00001b8                gcombufleng
                0xa00001b9                _ui_module_id
                0xa00001ba                CANGASMINUTE
                0xa00001bc                IsGasAdd_tick
                0xa00001c0                CompanyInbufleng
                0xa00001c4                _b_quota_err
                0xa00001c8                cur_p_GID
                0xa00001cc                _10ms_tick2_
                0xa00001d0                cur_price
                0xa00001d4                cur_lngtemp
                0xa00001d8                _ui_pricex_set_id
                0xa00001d9                ReadTn
                0xa00001dc                cur_cnggain
                0xa00001e0                KEY_CAR_PASS
                0xa00001e8                Carcheck_tick
                0xa00001ec                SP_tick
                0xa00001f0                ReadTemp_Tick
                0xa00001f4                Disp_AllErr_tick
                0xa00001f8                gass_ok
                0xa00001fc                Precool_ok
                0xa0000200                uart_state
                0xa0000201                _ui_syschk_set_id
                0xa0000202                _ui_cs_set_id
                0xa0000204                gScanKeyTick
                0xa0000208                QX_RECORD
                0xa000020c                swjset_value
                0xa0000210                Rec_Sum_Start
                0xa0000214                _ui_precool_set_id
                0xa0000218                _b_have_card
                0xa000021c                se_cmdnu
                0xa000021d                gComRec_OK
                0xa0000220                b_keyv
                0xa0000224                cur_lngrate
                0xa0000228                Operate_fixm
                0xa000022c                cur_lngnum
                0xa0000230                cur_lngdensty
                0xa0000234                Rec_Card_PreM_int
                0xa0000238                _sys_tick_
                0xa000023c                _b_have_cont
                0xa000023d                _CARD_TYPE
                0xa0000240                b_fixmop
                0xa0000244                _ui_paras_set_id
                0xa0000248                EecKeynull
                0xa000024c                SysrunTick
                0xa0000250                Company_alarm
                0xa0000254                Company_Timeoutnum
                0xa0000256                PR_YGH
                0xa0000258                Keyvol_num
                0xa0000259                QX_OVER
                0xa000025c                _gas_run_flag
                0xa0000260                FIX_RecOK
                0xa0000264                Result_card
                0xa0000268                b_shift_ok
                0xa000026c                zhutime
                0xa0000274                _simu_lngnum
                0xa0000278                DUISHI
                0xa000027a                Rec_liushnum
                0xa000027c                cur_calsum_c
                0xa0000280                crc_rece
                0xa0000284                heareat_flag
                0xa0000288                sys_info_page
                0xa000028a                cur_max_soe
                0xa000028c                temperature
                0xa0000290                GAS_MustStop_Err
                0xa0000294                Sign_Name
                0xa0000298                cur_max_recid
                0xa000029c                pr_lsh
                0xa00002a0                TEST_tick
                0xa00002a4                QL_PRINT
                0xa00002a8                Companytime_flag
                0xa00002ac                Rec_shiftidnum
                0xa00002ae                Graybegain
                0xa00002af                led
                0xa00002b0                Rec_Sum_End
                0xa00002b4                GAS_Stime
                0xa00002bc                PRICE9
                0xa00002c0                JQ_money
                0xa00002c4                PRICE2
                0xa00002c8                cur_calsum
                0xa00002cc                Rec_Card_EndM_int
                0xa00002d0                re_over_tick
                0xa00002d4                Runled_tick
                0xa00002d8                heareat_time
                0xa00002dc                State_g_p
                0xa00002de                _simu_tick
                0xa00002e0                WDKZ
                0xa00002e4                sdk_cont
                0xa00002e8                PRICE7
                0xa00002ec                cur_init_cngnum
                0xa00002f0                PRICE8
                0xa00002f4                CompanyPos
                0xa00002f8                PRICE3
                0xa00002fc                PRICE4
                0xa0000300                Protocol_tick
                0xa0000304                PRICE6
                0xa0000308                PRICE5
                0xa000030c                send_sj_flag
                0xa0000310                cur_press
                0xa0000314                cursor_x
                0xa0000315                cursor_y
                0xa0000316                _ui_sys_set_id
                0xa0000318                _b_cz_card
                0xa000031c                Is_debuggas_Read
                0xa0000320                Rec_Card_EndM
                0xa0000324                Rec_Card_Endg
                0xa0000328                Runled
                0xa000032c                MAX_dubug_recid_num
                0xa0000330                Debugasing_rstsave_Tick
                0xa0000334                WKJQ
                0xa0000338                offwork_ok
                0xa000033c                opotocol_SW
                0xa0000340                Newdisp_tick2
                0xa0000344                _sys_tick_cnt_
                0xa0000348                Cur_Price
                0xa000034c                DSCG
                0xa000034d                KeyScan
                0xa0000350                OKgas_GV
                0xa0000354                _b_state_err
                0xa0000358                Precool_over
                0xa000035c                GAS_Etime
                0xa0000364                gass_stop
                0xa0000368                smallMini_FD
                0xa000036c                pototime_flag
                0xa0000370                ok_ReadKeyTick
                0xa0000374                cur_max_shiftid
                0xa0000378                _modbus_response_len
                0xa000037c                cur_max_recid0
                0xa0000380                cur_fixm
                0xa0000384                cur_fixn
                0xa0000388                re_cmdnu
                0xa000038c                cur_max_reset
                0xa0000390                sys_recPCtime
                0xa0000396                PrecoolCo
                0xa0000397                ORD_DATAPA
                0xa0000398                gcomInbufleng
                0xa000039c                Rec_Card_Preg
                0xa00003a0                Discount_validity
                0xa00003a4                Add_Gas_CS
                0xa00003a5                SCS
                0xa00003a8                Discounf
                0xa00003ac                cur_lnggain
                0xa00003b0                VER_MasterBoard
                0xa00003b4                cur_cngtemp
                0xa00003b8                Eeckey
                0xa00003bc                cur_cngnum
                0xa00003c0                PRINT_SET
                0xa00003c1                jr_power
                0xa00003c4                _b_init_ok
                0xa00003c8                Pre_vol_add
                0xa00003cc                cur_calnum
                0xa00003d0                Rec_Card_Endg_int
 .scommon       0xa00003d4        0x0 build/default/production/_ext/1246622842/25vfxxx.o
 .scommon       0xa00003d4        0x0 build/default/production/_ext/1246622842/buzzer.o
 .scommon       0xa00003d4        0x0 build/default/production/_ext/1246622842/clock.o
 .scommon       0xa00003d4        0x0 build/default/production/_ext/1246622842/company.o
 .scommon       0xa00003d4        0x0 build/default/production/_ext/1246622842/des.o
 .scommon       0xa00003d4        0x0 build/default/production/_ext/1246622842/disp.o
 .scommon       0xa00003d4        0x4 build/default/production/_ext/1246622842/ic_card.o
                0xa00003d4                ic_status
 .scommon       0xa00003d8        0x0 build/default/production/_ext/1246622842/iic.o
 .scommon       0xa00003d8        0x0 build/default/production/_ext/1218090624/init.o
 .scommon       0xa00003d8        0x0 build/default/production/_ext/1218090624/kernel.o
 .scommon       0xa00003d8        0x0 build/default/production/_ext/1246622842/key.o
 .scommon       0xa00003d8        0x0 build/default/production/_ext/1246622842/lcd.o
 .scommon       0xa00003d8        0x0 build/default/production/_ext/1246622842/lngctrl.o
 .scommon       0xa00003d8        0x0 build/default/production/_ext/1246622842/lngdebug.o
 .scommon       0xa00003d8        0x0 build/default/production/_ext/1218090624/main.o
 .scommon       0xa00003d8        0x0 build/default/production/_ext/1218090624/main_ui.o
 .scommon       0xa00003d8        0x4 build/default/production/_ext/1218090624/module_test.o
                0xa00003d8                modbus_lg_switch
 .scommon       0xa00003dc        0x0 build/default/production/_ext/1246622842/nand.o
 .scommon       0xa00003dc        0x0 build/default/production/_ext/1246622842/print.o
 .scommon       0xa00003dc        0x1 build/default/production/_ext/1246622842/qry.o
                0xa00003dc                keynum
 *fill*         0xa00003dd        0x3 
 .scommon       0xa00003e0        0x4 build/default/production/_ext/1218090624/sign.o
                0xa00003e0                sig_err
 .scommon       0xa00003e4        0x0 build/default/production/_ext/1246622842/soe.o
 .scommon       0xa00003e4        0x0 build/default/production/_ext/1218090624/store.o
 .scommon       0xa00003e4        0x0 build/default/production/_ext/1218090624/sysset.o
 .scommon       0xa00003e4        0x0 build/default/production/_ext/1246622842/TempDetection.o
 .scommon       0xa00003e4        0x0 build/default/production/_ext/1246622842/uart.o
 .scommon       0xa00003e4        0x0 build/default/production/_ext/1246622842/gas_log.o
 .scommon       0xa00003e4        0x0 build/default/production/_ext/1246622842/gas_log_sp.o
                0xa00003e4                _sbss_end = .
                0xa00003e4                . = ALIGN (0x4)

.bss            0xa00003e4     0x10f0
 *(.dynbss)
 *(COMMON)
 COMMON         0xa00003e4     0x1054 build/default/production/_ext/1246622842/24lcxxx.o
                0xa00003e4                _modbus_response_buf
                0xa0000404                tm1
                0xa0000428                tm3
                0xa000044c                tm2
                0xa0000470                data_01
                0xa0000870                Send_Buf
                0xa00008f0                revtime
                0xa00008fc                CN
                0xa0000908                gComIn
                0xa0000930                cur_rec_shiftinfo
                0xa0000968                CPH_IN
                0xa0000974                shift_read
                0xa00009a8                cure_yz_card
                0xa00009b4                global_ic_card_info
                0xa0000a88                cur_rec_sysinfo
                0xa0000ac0                dataX
                0xa0000aec                CN_PRINT
                0xa0000af8                CPBH
                0xa0000b08                FLASH_R_BUF
                0xa0000d08                Recv_Buf
                0xa0000d58                cure_shift_card
                0xa0000d64                deg_oparme
                0xa0000d78                CP_PRINT
                0xa0000d84                GPBH
                0xa0000d94                cur_sysparas
                0xa0000e3c                CPH
                0xa0000e48                shift_write
                0xa0000e7c                AgComIn
                0xa0000eb0                Xs_Info
                0xa0000ec0                cure_JQ_card
                0xa0000ecc                gas_record
                0xa0000efc                Setsys_Rec_card
                0xa0000f08                cur_shift_loginfo
                0xa0000f38                VerCard
                0xa0000f44                Print_Info
                0xa0000f6c                gComRF
                0xa0000fec                Contact_Info
                0xa0000ffc                Sys_Rec_Err
                0xa0001008                Every_add_Gas
                0xa00010d0                Hard_Info
                0xa00010f8                cur_class_info
                0xa0001238                FLASH_W_BUF
 COMMON         0xa0001438       0x9a build/default/production/_ext/1246622842/ic_card.o
                0xa0001438                ic_card
                0xa000144c                msg
                0xa00014d4                . = ALIGN ((. != 0x0)?0x4:0x1)
 *fill*         0xa00014d2        0x2 
                0xa00014d4                . = ALIGN (0x4)
                0xa00014d4                _end = .
                0xa00014d4                _bss_end = .
                0x00020000                _bmxdudba_address = 0x20000
                0x00020000                _bmxdupba_address = 0x20000

/DISCARD/
 *(.pdr)
 *(.rel.dyn)
 *(.note.GNU-stack)
 *(.note.GNU-stack)
 *(.gnu_debuglink)
 *(.gnu.lto_*)
 *(.discard)
 *(._debug_exception)

.gptab.sdata
 *(.gptab.data)
 *(.gptab.sdata)

.gptab.sbss
 *(.gptab.bss)
 *(.gptab.sbss)

.mdebug.abi32   0xa00014d4        0x0
 *(.mdebug.abi32)
 .mdebug.abi32  0xa00014d4        0x0 build/default/production/_ext/1246622842/24lcxxx.o
 .mdebug.abi32  0xa00014d4        0x0 build/default/production/_ext/1246622842/25vfxxx.o
 .mdebug.abi32  0xa00014d4        0x0 build/default/production/_ext/1246622842/buzzer.o
 .mdebug.abi32  0xa00014d4        0x0 build/default/production/_ext/1246622842/clock.o
 .mdebug.abi32  0xa00014d4        0x0 build/default/production/_ext/1246622842/company.o
 .mdebug.abi32  0xa00014d4        0x0 build/default/production/_ext/1246622842/des.o
 .mdebug.abi32  0xa00014d4        0x0 build/default/production/_ext/1246622842/disp.o
 .mdebug.abi32  0xa00014d4        0x0 build/default/production/_ext/1246622842/ic_card.o
 .mdebug.abi32  0xa00014d4        0x0 build/default/production/_ext/1246622842/iic.o
 .mdebug.abi32  0xa00014d4        0x0 build/default/production/_ext/1218090624/init.o
 .mdebug.abi32  0xa00014d4        0x0 build/default/production/_ext/1218090624/kernel.o
 .mdebug.abi32  0xa00014d4        0x0 build/default/production/_ext/1246622842/key.o
 .mdebug.abi32  0xa00014d4        0x0 build/default/production/_ext/1246622842/lcd.o
 .mdebug.abi32  0xa00014d4        0x0 build/default/production/_ext/1246622842/lngctrl.o
 .mdebug.abi32  0xa00014d4        0x0 build/default/production/_ext/1246622842/lngdebug.o
 .mdebug.abi32  0xa00014d4        0x0 build/default/production/_ext/1218090624/main.o
 .mdebug.abi32  0xa00014d4        0x0 build/default/production/_ext/1218090624/main_ui.o
 .mdebug.abi32  0xa00014d4        0x0 build/default/production/_ext/1218090624/module_test.o
 .mdebug.abi32  0xa00014d4        0x0 build/default/production/_ext/1246622842/nand.o
 .mdebug.abi32  0xa00014d4        0x0 build/default/production/_ext/1246622842/print.o
 .mdebug.abi32  0xa00014d4        0x0 build/default/production/_ext/1246622842/qry.o
 .mdebug.abi32  0xa00014d4        0x0 build/default/production/_ext/1218090624/sign.o
 .mdebug.abi32  0xa00014d4        0x0 build/default/production/_ext/1246622842/soe.o
 .mdebug.abi32  0xa00014d4        0x0 build/default/production/_ext/1218090624/store.o
 .mdebug.abi32  0xa00014d4        0x0 build/default/production/_ext/1218090624/sysset.o
 .mdebug.abi32  0xa00014d4        0x0 build/default/production/_ext/1246622842/TempDetection.o
 .mdebug.abi32  0xa00014d4        0x0 build/default/production/_ext/1246622842/uart.o
 .mdebug.abi32  0xa00014d4        0x0 build/default/production/_ext/1246622842/gas_log.o
 .mdebug.abi32  0xa00014d4        0x0 build/default/production/_ext/1246622842/gas_log_sp.o
 .mdebug.abi32  0xa00014d4        0x0 d:/program files (x86)/microchip/xc32/v1.30/bin/../lib/gcc/pic32mx/4.5.2/../../../../pic32mx/lib\libmchp_peripheral.a(open_core_timer_lib.o)
 .mdebug.abi32  0xa00014d4        0x0 d:/program files (x86)/microchip/xc32/v1.30/bin/../lib/gcc/pic32mx/4.5.2/../../../../pic32mx/lib\libmchp_peripheral.a(update_core_timer_lib.o)
 .mdebug.abi32  0xa00014d4        0x0 d:/program files (x86)/microchip/xc32/v1.30/bin/../lib/gcc/pic32mx/4.5.2/../../../../pic32mx/lib\libmchp_peripheral_32MX795F512L.a(pcache.o)
 .mdebug.abi32  0xa00014d4        0x0 d:/program files (x86)/microchip/xc32/v1.30/bin/../lib/gcc/pic32mx/4.5.2/../../../../pic32mx/lib\libmchp_peripheral_32MX795F512L.a(int_configure_system_lib.o)
 .mdebug.abi32  0xa00014d4        0x0 d:/program files (x86)/microchip/xc32/v1.30/bin/../lib/gcc/pic32mx/4.5.2/../../../../pic32mx/lib\libmchp_peripheral_32MX795F512L.a(int_enable_interrupts_lib.o)
 .mdebug.abi32  0xa00014d4        0x0 d:/program files (x86)/microchip/xc32/v1.30/bin/../lib/gcc/pic32mx/4.5.2/../../../../pic32mx/lib\libmchp_peripheral_32MX795F512L.a(int_disable_interrupts_lib.o)
 .mdebug.abi32  0xa00014d4        0x0 d:/program files (x86)/microchip/xc32/v1.30/bin/../lib/gcc/pic32mx/4.5.2/../../../../pic32mx/lib\libmchp_peripheral_32MX795F512L.a(int_restore_interrupts_lib.o)
 .mdebug.abi32  0xa00014d4        0x0 d:/program files (x86)/microchip/xc32/v1.30/bin/../lib/gcc/pic32mx/4.5.2/../../../../pic32mx/lib\libmchp_peripheral_32MX795F512L.a(int_tbl_lib.o)
 .mdebug.abi32  0xa00014d4        0x0 d:/program files (x86)/microchip/xc32/v1.30/bin/../lib/gcc/pic32mx/4.5.2/../../../../pic32mx/lib\libmchp_peripheral_32MX795F512L.a(port_set_pins_digital_in_lib.o)
 .mdebug.abi32  0xa00014d4        0x0 d:/program files (x86)/microchip/xc32/v1.30/bin/../lib/gcc/pic32mx/4.5.2/../../../../pic32mx/lib\libmchp_peripheral_32MX795F512L.a(port_set_pins_digital_out_lib.o)
 .mdebug.abi32  0xa00014d4        0x0 d:/program files (x86)/microchip/xc32/v1.30/bin/../lib/gcc/pic32mx/4.5.2/../../../../pic32mx/lib\libmchp_peripheral_32MX795F512L.a(_ports_tbl_libp.o)
 .mdebug.abi32  0xa00014d4        0x0 d:/program files (x86)/microchip/xc32/v1.30/bin/../lib/gcc/pic32mx/4.5.2/../../../../pic32mx/lib\libmchp_peripheral_32MX795F512L.a(uart_lib.o)
 .mdebug.abi32  0xa00014d4        0x0 d:/program files (x86)/microchip/xc32/v1.30/bin/../lib/gcc/pic32mx/4.5.2/../../../../pic32mx/lib\libmchp_peripheral_32MX795F512L.a(idle_i2c2_lib_legacy.o)
 .mdebug.abi32  0xa00014d4        0x0 d:/program files (x86)/microchip/xc32/v1.30/bin/../lib/gcc/pic32mx/4.5.2/../../../../pic32mx/lib\libmchp_peripheral_32MX795F512L.a(master_read_i2c2_lib_legacy.o)
 .mdebug.abi32  0xa00014d4        0x0 d:/program files (x86)/microchip/xc32/v1.30/bin/../lib/gcc/pic32mx/4.5.2/../../../../pic32mx/lib\libmchp_peripheral_32MX795F512L.a(master_write_i2c2_lib_legacy.o)
 .mdebug.abi32  0xa00014d4        0x0 d:/program files (x86)/microchip/xc32/v1.30/bin/../lib/gcc/pic32mx/4.5.2/../../../../pic32mx/lib\libmchp_peripheral_32MX795F512L.a(I2CBusIsIdle.o)
 .mdebug.abi32  0xa00014d4        0x0 d:/program files (x86)/microchip/xc32/v1.30/bin/../lib/gcc/pic32mx/4.5.2/../../../../pic32mx/lib\libmchp_peripheral_32MX795F512L.a(I2CByteWasAcknowledged.o)
 .mdebug.abi32  0xa00014d4        0x0 d:/program files (x86)/microchip/xc32/v1.30/bin/../lib/gcc/pic32mx/4.5.2/../../../../pic32mx/lib\libmchp_peripheral_32MX795F512L.a(I2CConfigure.o)
 .mdebug.abi32  0xa00014d4        0x0 d:/program files (x86)/microchip/xc32/v1.30/bin/../lib/gcc/pic32mx/4.5.2/../../../../pic32mx/lib\libmchp_peripheral_32MX795F512L.a(I2CEnable.o)
 .mdebug.abi32  0xa00014d4        0x0 d:/program files (x86)/microchip/xc32/v1.30/bin/../lib/gcc/pic32mx/4.5.2/../../../../pic32mx/lib\libmchp_peripheral_32MX795F512L.a(I2CGetByte.o)
 .mdebug.abi32  0xa00014d4        0x0 d:/program files (x86)/microchip/xc32/v1.30/bin/../lib/gcc/pic32mx/4.5.2/../../../../pic32mx/lib\libmchp_peripheral_32MX795F512L.a(I2CGetStatus.o)
 .mdebug.abi32  0xa00014d4        0x0 d:/program files (x86)/microchip/xc32/v1.30/bin/../lib/gcc/pic32mx/4.5.2/../../../../pic32mx/lib\libmchp_peripheral_32MX795F512L.a(I2CReceivedDataIsAvailable.o)
 .mdebug.abi32  0xa00014d4        0x0 d:/program files (x86)/microchip/xc32/v1.30/bin/../lib/gcc/pic32mx/4.5.2/../../../../pic32mx/lib\libmchp_peripheral_32MX795F512L.a(I2CReceiverEnable.o)
 .mdebug.abi32  0xa00014d4        0x0 d:/program files (x86)/microchip/xc32/v1.30/bin/../lib/gcc/pic32mx/4.5.2/../../../../pic32mx/lib\libmchp_peripheral_32MX795F512L.a(I2CRepeatStart.o)
 .mdebug.abi32  0xa00014d4        0x0 d:/program files (x86)/microchip/xc32/v1.30/bin/../lib/gcc/pic32mx/4.5.2/../../../../pic32mx/lib\libmchp_peripheral_32MX795F512L.a(I2CSendByte.o)
 .mdebug.abi32  0xa00014d4        0x0 d:/program files (x86)/microchip/xc32/v1.30/bin/../lib/gcc/pic32mx/4.5.2/../../../../pic32mx/lib\libmchp_peripheral_32MX795F512L.a(I2CSetFrequency.o)
 .mdebug.abi32  0xa00014d4        0x0 d:/program files (x86)/microchip/xc32/v1.30/bin/../lib/gcc/pic32mx/4.5.2/../../../../pic32mx/lib\libmchp_peripheral_32MX795F512L.a(I2CSetSlaveAddress.o)
 .mdebug.abi32  0xa00014d4        0x0 d:/program files (x86)/microchip/xc32/v1.30/bin/../lib/gcc/pic32mx/4.5.2/../../../../pic32mx/lib\libmchp_peripheral_32MX795F512L.a(I2CStart.o)
 .mdebug.abi32  0xa00014d4        0x0 d:/program files (x86)/microchip/xc32/v1.30/bin/../lib/gcc/pic32mx/4.5.2/../../../../pic32mx/lib\libmchp_peripheral_32MX795F512L.a(I2CStop.o)
 .mdebug.abi32  0xa00014d4        0x0 d:/program files (x86)/microchip/xc32/v1.30/bin/../lib/gcc/pic32mx/4.5.2/../../../../pic32mx/lib\libmchp_peripheral_32MX795F512L.a(I2CTransmissionHasCompleted.o)
 .mdebug.abi32  0xa00014d4        0x0 d:/program files (x86)/microchip/xc32/v1.30/bin/../lib/gcc/pic32mx/4.5.2/../../../../pic32mx/lib\libmchp_peripheral_32MX795F512L.a(I2CTransmitterIsReady.o)
 .mdebug.abi32  0xa00014d4        0x0 d:/program files (x86)/microchip/xc32/v1.30/bin/../lib/gcc/pic32mx/4.5.2/../../../../pic32mx/lib\libmchp_peripheral_32MX795F512L.a(I2CPrivate.o)
 .mdebug.abi32  0xa00014d4        0x0 d:/program files (x86)/microchip/xc32/v1.30/bin/../lib/gcc/pic32mx/4.5.2\libgcc.a(floatunsisf.o)
 .mdebug.abi32  0xa00014d4        0x0 d:/program files (x86)/microchip/xc32/v1.30/bin/../lib/gcc/pic32mx/4.5.2/../../../../pic32mx/lib\libpic32.a(default-bootstrap-exception-handler.o)
 .mdebug.abi32  0xa00014d4        0x0 d:/program files (x86)/microchip/xc32/v1.30/bin/../lib/gcc/pic32mx/4.5.2/../../../../pic32mx/lib\libpic32.a(default-on-reset.o)
 .mdebug.abi32  0xa00014d4        0x0 d:/program files (x86)/microchip/xc32/v1.30/bin/../lib/gcc/pic32mx/4.5.2/../../../../pic32mx/lib\libpic32.a(default-on-bootstrap.o)
 .mdebug.abi32  0xa00014d4        0x0 d:/program files (x86)/microchip/xc32/v1.30/bin/../lib/gcc/pic32mx/4.5.2/../../../../pic32mx/lib\libpic32.a(default-general-exception-handler.o)
 .mdebug.abi32  0xa00014d4        0x0 d:/program files (x86)/microchip/xc32/v1.30/bin/../lib/gcc/pic32mx/4.5.2/../../../../pic32mx/lib\libc.a(atoi.o)
 .mdebug.abi32  0xa00014d4        0x0 d:/program files (x86)/microchip/xc32/v1.30/bin/../lib/gcc/pic32mx/4.5.2/../../../../pic32mx/lib\libc.a(cldiv.o)
 .mdebug.abi32  0xa00014d4        0x0 d:/program files (x86)/microchip/xc32/v1.30/bin/../lib/gcc/pic32mx/4.5.2/../../../../pic32mx/lib\libc.a(ctype.o)
 .mdebug.abi32  0xa00014d4        0x0 d:/program files (x86)/microchip/xc32/v1.30/bin/../lib/gcc/pic32mx/4.5.2/../../../../pic32mx/lib\libc.a(itoa.o)
 .mdebug.abi32  0xa00014d4        0x0 d:/program files (x86)/microchip/xc32/v1.30/bin/../lib/gcc/pic32mx/4.5.2/../../../../pic32mx/lib\libc.a(strchr.o)
 .mdebug.abi32  0xa00014d4        0x0 d:/program files (x86)/microchip/xc32/v1.30/bin/../lib/gcc/pic32mx/4.5.2/../../../../pic32mx/lib\libc.a(strstr.o)
 .mdebug.abi32  0xa00014d4        0x0 d:/program files (x86)/microchip/xc32/v1.30/bin/../lib/gcc/pic32mx/4.5.2/../../../../pic32mx/lib\libc.a(strtol.o)
 .mdebug.abi32  0xa00014d4        0x0 d:/program files (x86)/microchip/xc32/v1.30/bin/../lib/gcc/pic32mx/4.5.2/../../../../pic32mx/lib\libc.a(atof.o)
 .mdebug.abi32  0xa00014d4        0x0 d:/program files (x86)/microchip/xc32/v1.30/bin/../lib/gcc/pic32mx/4.5.2/../../../../pic32mx/lib\libc.a(sprintf_cdfFnopuxX.eo)
 .mdebug.abi32  0xa00014d4        0x0 d:/program files (x86)/microchip/xc32/v1.30/bin/../lib/gcc/pic32mx/4.5.2/../../../../pic32mx/lib\libc.a(vsprintf.o)
 .mdebug.abi32  0xa00014d4        0x0 d:/program files (x86)/microchip/xc32/v1.30/bin/../lib/gcc/pic32mx/4.5.2/../../../../pic32mx/lib\libc.a(ctypef.o)
 .mdebug.abi32  0xa00014d4        0x0 d:/program files (x86)/microchip/xc32/v1.30/bin/../lib/gcc/pic32mx/4.5.2/../../../../pic32mx/lib\libc.a(errno.o)
 .mdebug.abi32  0xa00014d4        0x0 d:/program files (x86)/microchip/xc32/v1.30/bin/../lib/gcc/pic32mx/4.5.2/../../../../pic32mx/lib\libc.a(strncmp.o)
 .mdebug.abi32  0xa00014d4        0x0 d:/program files (x86)/microchip/xc32/v1.30/bin/../lib/gcc/pic32mx/4.5.2/../../../../pic32mx/lib\libc.a(strtof.o)
 .mdebug.abi32  0xa00014d4        0x0 d:/program files (x86)/microchip/xc32/v1.30/bin/../lib/gcc/pic32mx/4.5.2/../../../../pic32mx/lib\libc.a(doprnt_cdfFnopuxX.eo)
 .mdebug.abi32  0xa00014d4        0x0 d:/program files (x86)/microchip/xc32/v1.30/bin/../lib/gcc/pic32mx/4.5.2/../../../../pic32mx/lib\libc.a(doprnt.o)
 .mdebug.abi32  0xa00014d4        0x0 d:/program files (x86)/microchip/xc32/v1.30/bin/../lib/gcc/pic32mx/4.5.2/../../../../pic32mx/lib\libc.a(_fputc_simple.o)
 .mdebug.abi32  0xa00014d4        0x0 d:/program files (x86)/microchip/xc32/v1.30/bin/../lib/gcc/pic32mx/4.5.2/../../../../pic32mx/lib\libc.a(powersf.o)
 .mdebug.abi32  0xa00014d4        0x0 d:/program files (x86)/microchip/xc32/v1.30/bin/../lib/gcc/pic32mx/4.5.2/../../../../pic32mx/lib\libc.a(_iob.o)
 .mdebug.abi32  0xa00014d4        0x0 d:/program files (x86)/microchip/xc32/v1.30/bin/../lib/gcc/pic32mx/4.5.2/../../../../pic32mx/lib\libc.a(_flsbuf_simple.o)
 .mdebug.abi32  0xa00014d4        0x0 d:/program files (x86)/microchip/xc32/v1.30/bin/../lib/gcc/pic32mx/4.5.2/../../../../pic32mx/lib\libpic32.a(write.o)
 .mdebug.abi32  0xa00014d4        0x0 d:/program files (x86)/microchip/xc32/v1.30/bin/../lib/gcc/pic32mx/4.5.2/../../../../pic32mx/lib\libpic32.a(_mon_putc.o)
 .mdebug.abi32  0xa00014d4        0x0 d:/program files (x86)/microchip/xc32/v1.30/bin/../lib/gcc/pic32mx/4.5.2/../../../../pic32mx/lib\libpic32.a(xc32_uart.o)
 .mdebug.abi32  0xa00014d4        0x0 d:/program files (x86)/microchip/xc32/v1.30/bin/../lib/gcc/pic32mx/4.5.2/../../../../pic32mx/lib\libe.a(_floatdisf.o)
 .mdebug.abi32  0xa00014d4        0x0 d:/program files (x86)/microchip/xc32/v1.30/bin/../lib/gcc/pic32mx/4.5.2/../../../../pic32mx/lib\libe.a(_strtof.o)
 .mdebug.abi32  0xa00014d4        0x0 d:/program files (x86)/microchip/xc32/v1.30/bin/../lib/gcc/pic32mx/4.5.2/../../../../pic32mx/lib\libe.a(_ldexpf.o)
 .mdebug.abi32  0xa00014d4        0x0 d:/program files (x86)/microchip/xc32/v1.30/bin/../lib/gcc/pic32mx/4.5.2\libgcc.a(_floatundisf.o)
 .mdebug.abi32  0xa00014d4        0x0 d:/program files (x86)/microchip/xc32/v1.30/bin/../lib/gcc/pic32mx/4.5.2\libgcc.a(_udivdi3.o)
 .mdebug.abi32  0xa00014d4        0x0 d:/program files (x86)/microchip/xc32/v1.30/bin/../lib/gcc/pic32mx/4.5.2\libgcc.a(_umoddi3.o)

.mdebug.abiN32
 *(.mdebug.abiN32)

.mdebug.abi64
 *(.mdebug.abi64)

.mdebug.abiO64
 *(.mdebug.abiO64)

.mdebug.eabi32
 *(.mdebug.eabi32)

.mdebug.eabi64
 *(.mdebug.eabi64)

.gcc_compiled_long32
 *(.gcc_compiled_long32)

.gcc_compiled_long64
 *(.gcc_compiled_long64)

.stab
 *(.stab)

.stabstr
 *(.stabstr)

.stab.excl
 *(.stab.excl)

.stab.exclstr
 *(.stab.exclstr)

.stab.index
 *(.stab.index)

.stab.indexstr
 *(.stab.indexstr)

.comment        0x00000000      0x309
 *(.comment)
 .comment       0x00000000       0x3c build/default/production/_ext/1246622842/24lcxxx.o
                                 0x3d (size before relaxing)
 .comment       0x00000000       0x3d build/default/production/_ext/1246622842/25vfxxx.o
 .comment       0x00000000       0x3d build/default/production/_ext/1246622842/buzzer.o
 .comment       0x00000000       0x3d build/default/production/_ext/1246622842/clock.o
 .comment       0x00000000       0x3d build/default/production/_ext/1246622842/company.o
 .comment       0x00000000       0x3d build/default/production/_ext/1246622842/des.o
 .comment       0x00000000       0x3d build/default/production/_ext/1246622842/disp.o
 .comment       0x00000000       0x3d build/default/production/_ext/1246622842/ic_card.o
 .comment       0x00000000       0x3d build/default/production/_ext/1246622842/iic.o
 .comment       0x00000000       0x3d build/default/production/_ext/1218090624/init.o
 .comment       0x00000000       0x3d build/default/production/_ext/1218090624/kernel.o
 .comment       0x00000000       0x3d build/default/production/_ext/1246622842/key.o
 .comment       0x00000000       0x3d build/default/production/_ext/1246622842/lcd.o
 .comment       0x00000000       0x3d build/default/production/_ext/1246622842/lngctrl.o
 .comment       0x00000000       0x3d build/default/production/_ext/1246622842/lngdebug.o
 .comment       0x00000000       0x3d build/default/production/_ext/1218090624/main.o
 .comment       0x00000000       0x3d build/default/production/_ext/1218090624/main_ui.o
 .comment       0x00000000       0x3d build/default/production/_ext/1218090624/module_test.o
 .comment       0x00000000       0x3d build/default/production/_ext/1246622842/nand.o
 .comment       0x00000000       0x3d build/default/production/_ext/1246622842/print.o
 .comment       0x00000000       0x3d build/default/production/_ext/1246622842/qry.o
 .comment       0x00000000       0x3d build/default/production/_ext/1218090624/sign.o
 .comment       0x00000000       0x3d build/default/production/_ext/1246622842/soe.o
 .comment       0x00000000       0x3d build/default/production/_ext/1218090624/store.o
 .comment       0x00000000       0x3d build/default/production/_ext/1218090624/sysset.o
 .comment       0x00000000       0x3d build/default/production/_ext/1246622842/TempDetection.o
 .comment       0x00000000       0x3d build/default/production/_ext/1246622842/uart.o
 .comment       0x00000000       0x3d build/default/production/_ext/1246622842/gas_log.o
 .comment       0x00000000       0x3d build/default/production/_ext/1246622842/gas_log_sp.o
 .comment       0x0000003c       0x3c d:/program files (x86)/microchip/xc32/v1.30/bin/../lib/gcc/pic32mx/4.5.2/../../../../pic32mx/lib\libmchp_peripheral.a(open_core_timer_lib.o)
                                 0x3d (size before relaxing)
 .comment       0x00000000       0x3d d:/program files (x86)/microchip/xc32/v1.30/bin/../lib/gcc/pic32mx/4.5.2/../../../../pic32mx/lib\libmchp_peripheral.a(update_core_timer_lib.o)
 .comment       0x00000000       0x3d d:/program files (x86)/microchip/xc32/v1.30/bin/../lib/gcc/pic32mx/4.5.2/../../../../pic32mx/lib\libmchp_peripheral_32MX795F512L.a(pcache.o)
 .comment       0x00000000       0x3d d:/program files (x86)/microchip/xc32/v1.30/bin/../lib/gcc/pic32mx/4.5.2/../../../../pic32mx/lib\libmchp_peripheral_32MX795F512L.a(int_configure_system_lib.o)
 .comment       0x00000000       0x3d d:/program files (x86)/microchip/xc32/v1.30/bin/../lib/gcc/pic32mx/4.5.2/../../../../pic32mx/lib\libmchp_peripheral_32MX795F512L.a(int_enable_interrupts_lib.o)
 .comment       0x00000000       0x3d d:/program files (x86)/microchip/xc32/v1.30/bin/../lib/gcc/pic32mx/4.5.2/../../../../pic32mx/lib\libmchp_peripheral_32MX795F512L.a(int_disable_interrupts_lib.o)
 .comment       0x00000000       0x3d d:/program files (x86)/microchip/xc32/v1.30/bin/../lib/gcc/pic32mx/4.5.2/../../../../pic32mx/lib\libmchp_peripheral_32MX795F512L.a(int_restore_interrupts_lib.o)
 .comment       0x00000000       0x3d d:/program files (x86)/microchip/xc32/v1.30/bin/../lib/gcc/pic32mx/4.5.2/../../../../pic32mx/lib\libmchp_peripheral_32MX795F512L.a(int_tbl_lib.o)
 .comment       0x00000000       0x3d d:/program files (x86)/microchip/xc32/v1.30/bin/../lib/gcc/pic32mx/4.5.2/../../../../pic32mx/lib\libmchp_peripheral_32MX795F512L.a(port_set_pins_digital_in_lib.o)
 .comment       0x00000000       0x3d d:/program files (x86)/microchip/xc32/v1.30/bin/../lib/gcc/pic32mx/4.5.2/../../../../pic32mx/lib\libmchp_peripheral_32MX795F512L.a(port_set_pins_digital_out_lib.o)
 .comment       0x00000000       0x3d d:/program files (x86)/microchip/xc32/v1.30/bin/../lib/gcc/pic32mx/4.5.2/../../../../pic32mx/lib\libmchp_peripheral_32MX795F512L.a(_ports_tbl_libp.o)
 .comment       0x00000000       0x3d d:/program files (x86)/microchip/xc32/v1.30/bin/../lib/gcc/pic32mx/4.5.2/../../../../pic32mx/lib\libmchp_peripheral_32MX795F512L.a(uart_lib.o)
 .comment       0x00000000       0x3d d:/program files (x86)/microchip/xc32/v1.30/bin/../lib/gcc/pic32mx/4.5.2/../../../../pic32mx/lib\libmchp_peripheral_32MX795F512L.a(idle_i2c2_lib_legacy.o)
 .comment       0x00000000       0x3d d:/program files (x86)/microchip/xc32/v1.30/bin/../lib/gcc/pic32mx/4.5.2/../../../../pic32mx/lib\libmchp_peripheral_32MX795F512L.a(master_read_i2c2_lib_legacy.o)
 .comment       0x00000000       0x3d d:/program files (x86)/microchip/xc32/v1.30/bin/../lib/gcc/pic32mx/4.5.2/../../../../pic32mx/lib\libmchp_peripheral_32MX795F512L.a(master_write_i2c2_lib_legacy.o)
 .comment       0x00000000       0x3d d:/program files (x86)/microchip/xc32/v1.30/bin/../lib/gcc/pic32mx/4.5.2/../../../../pic32mx/lib\libmchp_peripheral_32MX795F512L.a(I2CBusIsIdle.o)
 .comment       0x00000000       0x3d d:/program files (x86)/microchip/xc32/v1.30/bin/../lib/gcc/pic32mx/4.5.2/../../../../pic32mx/lib\libmchp_peripheral_32MX795F512L.a(I2CByteWasAcknowledged.o)
 .comment       0x00000000       0x3d d:/program files (x86)/microchip/xc32/v1.30/bin/../lib/gcc/pic32mx/4.5.2/../../../../pic32mx/lib\libmchp_peripheral_32MX795F512L.a(I2CConfigure.o)
 .comment       0x00000000       0x3d d:/program files (x86)/microchip/xc32/v1.30/bin/../lib/gcc/pic32mx/4.5.2/../../../../pic32mx/lib\libmchp_peripheral_32MX795F512L.a(I2CEnable.o)
 .comment       0x00000000       0x3d d:/program files (x86)/microchip/xc32/v1.30/bin/../lib/gcc/pic32mx/4.5.2/../../../../pic32mx/lib\libmchp_peripheral_32MX795F512L.a(I2CGetByte.o)
 .comment       0x00000000       0x3d d:/program files (x86)/microchip/xc32/v1.30/bin/../lib/gcc/pic32mx/4.5.2/../../../../pic32mx/lib\libmchp_peripheral_32MX795F512L.a(I2CGetStatus.o)
 .comment       0x00000000       0x3d d:/program files (x86)/microchip/xc32/v1.30/bin/../lib/gcc/pic32mx/4.5.2/../../../../pic32mx/lib\libmchp_peripheral_32MX795F512L.a(I2CReceivedDataIsAvailable.o)
 .comment       0x00000000       0x3d d:/program files (x86)/microchip/xc32/v1.30/bin/../lib/gcc/pic32mx/4.5.2/../../../../pic32mx/lib\libmchp_peripheral_32MX795F512L.a(I2CReceiverEnable.o)
 .comment       0x00000000       0x3d d:/program files (x86)/microchip/xc32/v1.30/bin/../lib/gcc/pic32mx/4.5.2/../../../../pic32mx/lib\libmchp_peripheral_32MX795F512L.a(I2CRepeatStart.o)
 .comment       0x00000000       0x3d d:/program files (x86)/microchip/xc32/v1.30/bin/../lib/gcc/pic32mx/4.5.2/../../../../pic32mx/lib\libmchp_peripheral_32MX795F512L.a(I2CSendByte.o)
 .comment       0x00000000       0x3d d:/program files (x86)/microchip/xc32/v1.30/bin/../lib/gcc/pic32mx/4.5.2/../../../../pic32mx/lib\libmchp_peripheral_32MX795F512L.a(I2CSetFrequency.o)
 .comment       0x00000000       0x3d d:/program files (x86)/microchip/xc32/v1.30/bin/../lib/gcc/pic32mx/4.5.2/../../../../pic32mx/lib\libmchp_peripheral_32MX795F512L.a(I2CSetSlaveAddress.o)
 .comment       0x00000000       0x3d d:/program files (x86)/microchip/xc32/v1.30/bin/../lib/gcc/pic32mx/4.5.2/../../../../pic32mx/lib\libmchp_peripheral_32MX795F512L.a(I2CStart.o)
 .comment       0x00000000       0x3d d:/program files (x86)/microchip/xc32/v1.30/bin/../lib/gcc/pic32mx/4.5.2/../../../../pic32mx/lib\libmchp_peripheral_32MX795F512L.a(I2CStop.o)
 .comment       0x00000000       0x3d d:/program files (x86)/microchip/xc32/v1.30/bin/../lib/gcc/pic32mx/4.5.2/../../../../pic32mx/lib\libmchp_peripheral_32MX795F512L.a(I2CTransmissionHasCompleted.o)
 .comment       0x00000000       0x3d d:/program files (x86)/microchip/xc32/v1.30/bin/../lib/gcc/pic32mx/4.5.2/../../../../pic32mx/lib\libmchp_peripheral_32MX795F512L.a(I2CTransmitterIsReady.o)
 .comment       0x00000000       0x3d d:/program files (x86)/microchip/xc32/v1.30/bin/../lib/gcc/pic32mx/4.5.2/../../../../pic32mx/lib\libmchp_peripheral_32MX795F512L.a(I2CPrivate.o)
 .comment       0x00000000       0x3d d:/program files (x86)/microchip/xc32/v1.30/bin/../lib/gcc/pic32mx/4.5.2\libgcc.a(floatunsisf.o)
 .comment       0x00000078       0x18 d:/program files (x86)/microchip/xc32/v1.30/bin/../lib/gcc/pic32mx/4.5.2/../../../../pic32mx/lib\libpic32.a(memcmp.o)
                                 0x19 (size before relaxing)
 .comment       0x00000090       0x18 d:/program files (x86)/microchip/xc32/v1.30/bin/../lib/gcc/pic32mx/4.5.2/../../../../pic32mx/lib\libpic32.a(memset.o)
                                 0x19 (size before relaxing)
 .comment       0x000000a8       0x55 d:/program files (x86)/microchip/xc32/v1.30/bin/../lib/gcc/pic32mx/4.5.2/../../../../pic32mx/lib\libpic32.a(strcmp.o)
                                 0x56 (size before relaxing)
 .comment       0x000000fd       0x19 d:/program files (x86)/microchip/xc32/v1.30/bin/../lib/gcc/pic32mx/4.5.2/../../../../pic32mx/lib\libpic32.a(strcpy.o)
                                 0x1a (size before relaxing)
 .comment       0x00000116       0x19 d:/program files (x86)/microchip/xc32/v1.30/bin/../lib/gcc/pic32mx/4.5.2/../../../../pic32mx/lib\libpic32.a(strlen.o)
                                 0x1a (size before relaxing)
 .comment       0x00000000       0x3d d:/program files (x86)/microchip/xc32/v1.30/bin/../lib/gcc/pic32mx/4.5.2/../../../../pic32mx/lib\libpic32.a(default-bootstrap-exception-handler.o)
 .comment       0x00000000       0x3d d:/program files (x86)/microchip/xc32/v1.30/bin/../lib/gcc/pic32mx/4.5.2/../../../../pic32mx/lib\libpic32.a(default-on-reset.o)
 .comment       0x00000000       0x3d d:/program files (x86)/microchip/xc32/v1.30/bin/../lib/gcc/pic32mx/4.5.2/../../../../pic32mx/lib\libpic32.a(default-on-bootstrap.o)
 .comment       0x00000000       0x3d d:/program files (x86)/microchip/xc32/v1.30/bin/../lib/gcc/pic32mx/4.5.2/../../../../pic32mx/lib\libpic32.a(default-general-exception-handler.o)
 .comment       0x00000000       0x3d d:/program files (x86)/microchip/xc32/v1.30/bin/../lib/gcc/pic32mx/4.5.2/../../../../pic32mx/lib\libc.a(atoi.o)
 .comment       0x00000000       0x3d d:/program files (x86)/microchip/xc32/v1.30/bin/../lib/gcc/pic32mx/4.5.2/../../../../pic32mx/lib\libc.a(cldiv.o)
 .comment       0x0000012f       0x4e d:/program files (x86)/microchip/xc32/v1.30/bin/../lib/gcc/pic32mx/4.5.2/../../../../pic32mx/lib\libc.a(ctype.o)
                                 0x8b (size before relaxing)
 .comment       0x00000000       0x3d d:/program files (x86)/microchip/xc32/v1.30/bin/../lib/gcc/pic32mx/4.5.2/../../../../pic32mx/lib\libc.a(itoa.o)
 .comment       0x00000000       0x3d d:/program files (x86)/microchip/xc32/v1.30/bin/../lib/gcc/pic32mx/4.5.2/../../../../pic32mx/lib\libc.a(strchr.o)
 .comment       0x00000000       0x3d d:/program files (x86)/microchip/xc32/v1.30/bin/../lib/gcc/pic32mx/4.5.2/../../../../pic32mx/lib\libc.a(strstr.o)
 .comment       0x00000000       0x3d d:/program files (x86)/microchip/xc32/v1.30/bin/../lib/gcc/pic32mx/4.5.2/../../../../pic32mx/lib\libc.a(strtol.o)
 .comment       0x00000000       0x3d d:/program files (x86)/microchip/xc32/v1.30/bin/../lib/gcc/pic32mx/4.5.2/../../../../pic32mx/lib\libc.a(atof.o)
 .comment       0x00000000       0x3d d:/program files (x86)/microchip/xc32/v1.30/bin/../lib/gcc/pic32mx/4.5.2/../../../../pic32mx/lib\libc.a(sprintf_cdfFnopuxX.eo)
 .comment       0x00000000       0x3d d:/program files (x86)/microchip/xc32/v1.30/bin/../lib/gcc/pic32mx/4.5.2/../../../../pic32mx/lib\libc.a(vsprintf.o)
 .comment       0x0000017d       0x4f d:/program files (x86)/microchip/xc32/v1.30/bin/../lib/gcc/pic32mx/4.5.2/../../../../pic32mx/lib\libc.a(ctypef.o)
                                 0x8c (size before relaxing)
 .comment       0x00000000       0x3d d:/program files (x86)/microchip/xc32/v1.30/bin/../lib/gcc/pic32mx/4.5.2/../../../../pic32mx/lib\libc.a(errno.o)
 .comment       0x00000000       0x3d d:/program files (x86)/microchip/xc32/v1.30/bin/../lib/gcc/pic32mx/4.5.2/../../../../pic32mx/lib\libc.a(strncmp.o)
 .comment       0x00000000       0x3d d:/program files (x86)/microchip/xc32/v1.30/bin/../lib/gcc/pic32mx/4.5.2/../../../../pic32mx/lib\libc.a(strtof.o)
 .comment       0x00000000       0x3d d:/program files (x86)/microchip/xc32/v1.30/bin/../lib/gcc/pic32mx/4.5.2/../../../../pic32mx/lib\libc.a(doprnt_cdfFnopuxX.eo)
 .comment       0x00000000       0x3d d:/program files (x86)/microchip/xc32/v1.30/bin/../lib/gcc/pic32mx/4.5.2/../../../../pic32mx/lib\libc.a(doprnt.o)
 .comment       0x00000000       0x3d d:/program files (x86)/microchip/xc32/v1.30/bin/../lib/gcc/pic32mx/4.5.2/../../../../pic32mx/lib\libc.a(_fputc_simple.o)
 .comment       0x00000000       0x3d d:/program files (x86)/microchip/xc32/v1.30/bin/../lib/gcc/pic32mx/4.5.2/../../../../pic32mx/lib\libc.a(powersf.o)
 .comment       0x00000000       0x3d d:/program files (x86)/microchip/xc32/v1.30/bin/../lib/gcc/pic32mx/4.5.2/../../../../pic32mx/lib\libc.a(_iob.o)
 .comment       0x00000000       0x3d d:/program files (x86)/microchip/xc32/v1.30/bin/../lib/gcc/pic32mx/4.5.2/../../../../pic32mx/lib\libc.a(_flsbuf_simple.o)
 .comment       0x00000000       0x3d d:/program files (x86)/microchip/xc32/v1.30/bin/../lib/gcc/pic32mx/4.5.2/../../../../pic32mx/lib\libpic32.a(write.o)
 .comment       0x00000000       0x3d d:/program files (x86)/microchip/xc32/v1.30/bin/../lib/gcc/pic32mx/4.5.2/../../../../pic32mx/lib\libpic32.a(_mon_putc.o)
 .comment       0x00000000       0x3d d:/program files (x86)/microchip/xc32/v1.30/bin/../lib/gcc/pic32mx/4.5.2/../../../../pic32mx/lib\libpic32.a(xc32_uart.o)
 .comment       0x000001cc       0x9e d:/program files (x86)/microchip/xc32/v1.30/bin/../lib/gcc/pic32mx/4.5.2/../../../../pic32mx/lib\libe.a(_floatdisf.o)
                                 0xdb (size before relaxing)
 .comment       0x0000026a       0x4f d:/program files (x86)/microchip/xc32/v1.30/bin/../lib/gcc/pic32mx/4.5.2/../../../../pic32mx/lib\libe.a(_strtof.o)
                                 0xda (size before relaxing)
 .comment       0x000002b9       0x50 d:/program files (x86)/microchip/xc32/v1.30/bin/../lib/gcc/pic32mx/4.5.2/../../../../pic32mx/lib\libe.a(_ldexpf.o)
                                 0xdb (size before relaxing)
 .comment       0x00000000       0x3d d:/program files (x86)/microchip/xc32/v1.30/bin/../lib/gcc/pic32mx/4.5.2\libgcc.a(_floatundisf.o)
 .comment       0x00000000       0x3d d:/program files (x86)/microchip/xc32/v1.30/bin/../lib/gcc/pic32mx/4.5.2\libgcc.a(_udivdi3.o)
 .comment       0x00000000       0x3d d:/program files (x86)/microchip/xc32/v1.30/bin/../lib/gcc/pic32mx/4.5.2\libgcc.a(_umoddi3.o)

.debug
 *(.debug)

.line
 *(.line)

.debug_srcinfo
 *(.debug_srcinfo)

.debug_sfnames
 *(.debug_sfnames)

.debug_aranges  0x00000000      0xc10
 *(.debug_aranges)
 .debug_aranges
                0x00000000       0x20 build/default/production/_ext/1246622842/24lcxxx.o
 .debug_aranges
                0x00000020       0x20 build/default/production/_ext/1246622842/buzzer.o
 .debug_aranges
                0x00000040       0x20 build/default/production/_ext/1246622842/clock.o
 .debug_aranges
                0x00000060       0x20 build/default/production/_ext/1246622842/company.o
 .debug_aranges
                0x00000080       0x20 build/default/production/_ext/1246622842/des.o
 .debug_aranges
                0x000000a0       0x20 build/default/production/_ext/1246622842/disp.o
 .debug_aranges
                0x000000c0       0x20 build/default/production/_ext/1246622842/ic_card.o
 .debug_aranges
                0x000000e0       0x20 build/default/production/_ext/1246622842/iic.o
 .debug_aranges
                0x00000100       0x20 build/default/production/_ext/1218090624/init.o
 .debug_aranges
                0x00000120       0x20 build/default/production/_ext/1218090624/kernel.o
 .debug_aranges
                0x00000140       0x20 build/default/production/_ext/1246622842/key.o
 .debug_aranges
                0x00000160       0x20 build/default/production/_ext/1246622842/lcd.o
 .debug_aranges
                0x00000180       0x20 build/default/production/_ext/1246622842/lngctrl.o
 .debug_aranges
                0x000001a0       0x20 build/default/production/_ext/1246622842/lngdebug.o
 .debug_aranges
                0x000001c0       0x20 build/default/production/_ext/1218090624/main.o
 .debug_aranges
                0x000001e0       0x20 build/default/production/_ext/1218090624/main_ui.o
 .debug_aranges
                0x00000200       0x20 build/default/production/_ext/1218090624/module_test.o
 .debug_aranges
                0x00000220       0x20 build/default/production/_ext/1246622842/nand.o
 .debug_aranges
                0x00000240       0x20 build/default/production/_ext/1246622842/print.o
 .debug_aranges
                0x00000260       0x20 build/default/production/_ext/1246622842/qry.o
 .debug_aranges
                0x00000280       0x20 build/default/production/_ext/1218090624/sign.o
 .debug_aranges
                0x000002a0       0x20 build/default/production/_ext/1246622842/soe.o
 .debug_aranges
                0x000002c0       0x20 build/default/production/_ext/1218090624/store.o
 .debug_aranges
                0x000002e0       0x20 build/default/production/_ext/1218090624/sysset.o
 .debug_aranges
                0x00000300       0x20 build/default/production/_ext/1246622842/TempDetection.o
 .debug_aranges
                0x00000320       0x20 build/default/production/_ext/1246622842/uart.o
 .debug_aranges
                0x00000340       0x20 build/default/production/_ext/1246622842/gas_log.o
 .debug_aranges
                0x00000360       0x20 build/default/production/_ext/1246622842/gas_log_sp.o
 .debug_aranges
                0x00000380       0x20 d:/program files (x86)/microchip/xc32/v1.30/bin/../lib/gcc/pic32mx/4.5.2/../../../../pic32mx/lib\libmchp_peripheral.a(open_core_timer_lib.o)
 .debug_aranges
                0x000003a0       0x20 d:/program files (x86)/microchip/xc32/v1.30/bin/../lib/gcc/pic32mx/4.5.2/../../../../pic32mx/lib\libmchp_peripheral.a(update_core_timer_lib.o)
 .debug_aranges
                0x000003c0       0x28 d:/program files (x86)/microchip/xc32/v1.30/bin/../lib/gcc/pic32mx/4.5.2/../../../../pic32mx/lib\libmchp_peripheral_32MX795F512L.a(pcache.o)
 .debug_aranges
                0x000003e8       0x20 d:/program files (x86)/microchip/xc32/v1.30/bin/../lib/gcc/pic32mx/4.5.2/../../../../pic32mx/lib\libmchp_peripheral_32MX795F512L.a(int_configure_system_lib.o)
 .debug_aranges
                0x00000408       0x20 d:/program files (x86)/microchip/xc32/v1.30/bin/../lib/gcc/pic32mx/4.5.2/../../../../pic32mx/lib\libmchp_peripheral_32MX795F512L.a(int_enable_interrupts_lib.o)
 .debug_aranges
                0x00000428       0x20 d:/program files (x86)/microchip/xc32/v1.30/bin/../lib/gcc/pic32mx/4.5.2/../../../../pic32mx/lib\libmchp_peripheral_32MX795F512L.a(int_disable_interrupts_lib.o)
 .debug_aranges
                0x00000448       0x20 d:/program files (x86)/microchip/xc32/v1.30/bin/../lib/gcc/pic32mx/4.5.2/../../../../pic32mx/lib\libmchp_peripheral_32MX795F512L.a(int_restore_interrupts_lib.o)
 .debug_aranges
                0x00000468       0x60 d:/program files (x86)/microchip/xc32/v1.30/bin/../lib/gcc/pic32mx/4.5.2/../../../../pic32mx/lib\libmchp_peripheral_32MX795F512L.a(int_tbl_lib.o)
 .debug_aranges
                0x000004c8       0x20 d:/program files (x86)/microchip/xc32/v1.30/bin/../lib/gcc/pic32mx/4.5.2/../../../../pic32mx/lib\libmchp_peripheral_32MX795F512L.a(port_set_pins_digital_in_lib.o)
 .debug_aranges
                0x000004e8       0x20 d:/program files (x86)/microchip/xc32/v1.30/bin/../lib/gcc/pic32mx/4.5.2/../../../../pic32mx/lib\libmchp_peripheral_32MX795F512L.a(port_set_pins_digital_out_lib.o)
 .debug_aranges
                0x00000508       0x58 d:/program files (x86)/microchip/xc32/v1.30/bin/../lib/gcc/pic32mx/4.5.2/../../../../pic32mx/lib\libmchp_peripheral_32MX795F512L.a(uart_lib.o)
 .debug_aranges
                0x00000560       0x20 d:/program files (x86)/microchip/xc32/v1.30/bin/../lib/gcc/pic32mx/4.5.2/../../../../pic32mx/lib\libmchp_peripheral_32MX795F512L.a(idle_i2c2_lib_legacy.o)
 .debug_aranges
                0x00000580       0x20 d:/program files (x86)/microchip/xc32/v1.30/bin/../lib/gcc/pic32mx/4.5.2/../../../../pic32mx/lib\libmchp_peripheral_32MX795F512L.a(master_read_i2c2_lib_legacy.o)
 .debug_aranges
                0x000005a0       0x20 d:/program files (x86)/microchip/xc32/v1.30/bin/../lib/gcc/pic32mx/4.5.2/../../../../pic32mx/lib\libmchp_peripheral_32MX795F512L.a(master_write_i2c2_lib_legacy.o)
 .debug_aranges
                0x000005c0       0x20 d:/program files (x86)/microchip/xc32/v1.30/bin/../lib/gcc/pic32mx/4.5.2/../../../../pic32mx/lib\libmchp_peripheral_32MX795F512L.a(I2CBusIsIdle.o)
 .debug_aranges
                0x000005e0       0x20 d:/program files (x86)/microchip/xc32/v1.30/bin/../lib/gcc/pic32mx/4.5.2/../../../../pic32mx/lib\libmchp_peripheral_32MX795F512L.a(I2CByteWasAcknowledged.o)
 .debug_aranges
                0x00000600       0x20 d:/program files (x86)/microchip/xc32/v1.30/bin/../lib/gcc/pic32mx/4.5.2/../../../../pic32mx/lib\libmchp_peripheral_32MX795F512L.a(I2CConfigure.o)
 .debug_aranges
                0x00000620       0x20 d:/program files (x86)/microchip/xc32/v1.30/bin/../lib/gcc/pic32mx/4.5.2/../../../../pic32mx/lib\libmchp_peripheral_32MX795F512L.a(I2CEnable.o)
 .debug_aranges
                0x00000640       0x20 d:/program files (x86)/microchip/xc32/v1.30/bin/../lib/gcc/pic32mx/4.5.2/../../../../pic32mx/lib\libmchp_peripheral_32MX795F512L.a(I2CGetByte.o)
 .debug_aranges
                0x00000660       0x20 d:/program files (x86)/microchip/xc32/v1.30/bin/../lib/gcc/pic32mx/4.5.2/../../../../pic32mx/lib\libmchp_peripheral_32MX795F512L.a(I2CGetStatus.o)
 .debug_aranges
                0x00000680       0x20 d:/program files (x86)/microchip/xc32/v1.30/bin/../lib/gcc/pic32mx/4.5.2/../../../../pic32mx/lib\libmchp_peripheral_32MX795F512L.a(I2CReceivedDataIsAvailable.o)
 .debug_aranges
                0x000006a0       0x20 d:/program files (x86)/microchip/xc32/v1.30/bin/../lib/gcc/pic32mx/4.5.2/../../../../pic32mx/lib\libmchp_peripheral_32MX795F512L.a(I2CReceiverEnable.o)
 .debug_aranges
                0x000006c0       0x20 d:/program files (x86)/microchip/xc32/v1.30/bin/../lib/gcc/pic32mx/4.5.2/../../../../pic32mx/lib\libmchp_peripheral_32MX795F512L.a(I2CRepeatStart.o)
 .debug_aranges
                0x000006e0       0x20 d:/program files (x86)/microchip/xc32/v1.30/bin/../lib/gcc/pic32mx/4.5.2/../../../../pic32mx/lib\libmchp_peripheral_32MX795F512L.a(I2CSendByte.o)
 .debug_aranges
                0x00000700       0x20 d:/program files (x86)/microchip/xc32/v1.30/bin/../lib/gcc/pic32mx/4.5.2/../../../../pic32mx/lib\libmchp_peripheral_32MX795F512L.a(I2CSetFrequency.o)
 .debug_aranges
                0x00000720       0x20 d:/program files (x86)/microchip/xc32/v1.30/bin/../lib/gcc/pic32mx/4.5.2/../../../../pic32mx/lib\libmchp_peripheral_32MX795F512L.a(I2CSetSlaveAddress.o)
 .debug_aranges
                0x00000740       0x20 d:/program files (x86)/microchip/xc32/v1.30/bin/../lib/gcc/pic32mx/4.5.2/../../../../pic32mx/lib\libmchp_peripheral_32MX795F512L.a(I2CStart.o)
 .debug_aranges
                0x00000760       0x20 d:/program files (x86)/microchip/xc32/v1.30/bin/../lib/gcc/pic32mx/4.5.2/../../../../pic32mx/lib\libmchp_peripheral_32MX795F512L.a(I2CStop.o)
 .debug_aranges
                0x00000780       0x20 d:/program files (x86)/microchip/xc32/v1.30/bin/../lib/gcc/pic32mx/4.5.2/../../../../pic32mx/lib\libmchp_peripheral_32MX795F512L.a(I2CTransmissionHasCompleted.o)
 .debug_aranges
                0x000007a0       0x20 d:/program files (x86)/microchip/xc32/v1.30/bin/../lib/gcc/pic32mx/4.5.2/../../../../pic32mx/lib\libmchp_peripheral_32MX795F512L.a(I2CTransmitterIsReady.o)
 .debug_aranges
                0x000007c0       0x20 d:/program files (x86)/microchip/xc32/v1.30/bin/../lib/gcc/pic32mx/4.5.2\libgcc.a(floatunsisf.o)
 .debug_aranges
                0x000007e0       0x20 d:/program files (x86)/microchip/xc32/v1.30/bin/../lib/gcc/pic32mx/4.5.2/../../../../pic32mx/lib\libpic32.a(default-bootstrap-exception-handler.o)
 .debug_aranges
                0x00000800       0x20 d:/program files (x86)/microchip/xc32/v1.30/bin/../lib/gcc/pic32mx/4.5.2/../../../../pic32mx/lib\libpic32.a(default-on-reset.o)
 .debug_aranges
                0x00000820       0x20 d:/program files (x86)/microchip/xc32/v1.30/bin/../lib/gcc/pic32mx/4.5.2/../../../../pic32mx/lib\libpic32.a(default-on-bootstrap.o)
 .debug_aranges
                0x00000840       0x20 d:/program files (x86)/microchip/xc32/v1.30/bin/../lib/gcc/pic32mx/4.5.2/../../../../pic32mx/lib\libpic32.a(default-general-exception-handler.o)
 .debug_aranges
                0x00000860       0x20 d:/program files (x86)/microchip/xc32/v1.30/bin/../lib/gcc/pic32mx/4.5.2/../../../../pic32mx/lib\libc.a(atoi.o)
 .debug_aranges
                0x00000880       0x20 d:/program files (x86)/microchip/xc32/v1.30/bin/../lib/gcc/pic32mx/4.5.2/../../../../pic32mx/lib\libc.a(cldiv.o)
 .debug_aranges
                0x000008a0       0x28 d:/program files (x86)/microchip/xc32/v1.30/bin/../lib/gcc/pic32mx/4.5.2/../../../../pic32mx/lib\libc.a(itoa.o)
 .debug_aranges
                0x000008c8       0x20 d:/program files (x86)/microchip/xc32/v1.30/bin/../lib/gcc/pic32mx/4.5.2/../../../../pic32mx/lib\libc.a(strchr.o)
 .debug_aranges
                0x000008e8       0x20 d:/program files (x86)/microchip/xc32/v1.30/bin/../lib/gcc/pic32mx/4.5.2/../../../../pic32mx/lib\libc.a(strstr.o)
 .debug_aranges
                0x00000908       0x28 d:/program files (x86)/microchip/xc32/v1.30/bin/../lib/gcc/pic32mx/4.5.2/../../../../pic32mx/lib\libc.a(strtol.o)
 .debug_aranges
                0x00000930       0x20 d:/program files (x86)/microchip/xc32/v1.30/bin/../lib/gcc/pic32mx/4.5.2/../../../../pic32mx/lib\libc.a(atof.o)
 .debug_aranges
                0x00000950       0x20 d:/program files (x86)/microchip/xc32/v1.30/bin/../lib/gcc/pic32mx/4.5.2/../../../../pic32mx/lib\libc.a(sprintf_cdfFnopuxX.eo)
 .debug_aranges
                0x00000970       0x20 d:/program files (x86)/microchip/xc32/v1.30/bin/../lib/gcc/pic32mx/4.5.2/../../../../pic32mx/lib\libc.a(vsprintf.o)
 .debug_aranges
                0x00000990       0xa0 d:/program files (x86)/microchip/xc32/v1.30/bin/../lib/gcc/pic32mx/4.5.2/../../../../pic32mx/lib\libc.a(ctypef.o)
 .debug_aranges
                0x00000a30       0x20 d:/program files (x86)/microchip/xc32/v1.30/bin/../lib/gcc/pic32mx/4.5.2/../../../../pic32mx/lib\libc.a(strncmp.o)
 .debug_aranges
                0x00000a50       0x28 d:/program files (x86)/microchip/xc32/v1.30/bin/../lib/gcc/pic32mx/4.5.2/../../../../pic32mx/lib\libc.a(strtof.o)
 .debug_aranges
                0x00000a78       0x28 d:/program files (x86)/microchip/xc32/v1.30/bin/../lib/gcc/pic32mx/4.5.2/../../../../pic32mx/lib\libc.a(doprnt_cdfFnopuxX.eo)
 .debug_aranges
                0x00000aa0       0x30 d:/program files (x86)/microchip/xc32/v1.30/bin/../lib/gcc/pic32mx/4.5.2/../../../../pic32mx/lib\libc.a(doprnt.o)
 .debug_aranges
                0x00000ad0       0x20 d:/program files (x86)/microchip/xc32/v1.30/bin/../lib/gcc/pic32mx/4.5.2/../../../../pic32mx/lib\libc.a(_fputc_simple.o)
 .debug_aranges
                0x00000af0       0x20 d:/program files (x86)/microchip/xc32/v1.30/bin/../lib/gcc/pic32mx/4.5.2/../../../../pic32mx/lib\libc.a(_flsbuf_simple.o)
 .debug_aranges
                0x00000b10       0x20 d:/program files (x86)/microchip/xc32/v1.30/bin/../lib/gcc/pic32mx/4.5.2/../../../../pic32mx/lib\libpic32.a(write.o)
 .debug_aranges
                0x00000b30       0x20 d:/program files (x86)/microchip/xc32/v1.30/bin/../lib/gcc/pic32mx/4.5.2/../../../../pic32mx/lib\libpic32.a(_mon_putc.o)
 .debug_aranges
                0x00000b50       0x20 d:/program files (x86)/microchip/xc32/v1.30/bin/../lib/gcc/pic32mx/4.5.2/../../../../pic32mx/lib\libe.a(_floatdisf.o)
 .debug_aranges
                0x00000b70       0x20 d:/program files (x86)/microchip/xc32/v1.30/bin/../lib/gcc/pic32mx/4.5.2/../../../../pic32mx/lib\libe.a(_strtof.o)
 .debug_aranges
                0x00000b90       0x20 d:/program files (x86)/microchip/xc32/v1.30/bin/../lib/gcc/pic32mx/4.5.2/../../../../pic32mx/lib\libe.a(_ldexpf.o)
 .debug_aranges
                0x00000bb0       0x20 d:/program files (x86)/microchip/xc32/v1.30/bin/../lib/gcc/pic32mx/4.5.2\libgcc.a(_floatundisf.o)
 .debug_aranges
                0x00000bd0       0x20 d:/program files (x86)/microchip/xc32/v1.30/bin/../lib/gcc/pic32mx/4.5.2\libgcc.a(_udivdi3.o)
 .debug_aranges
                0x00000bf0       0x20 d:/program files (x86)/microchip/xc32/v1.30/bin/../lib/gcc/pic32mx/4.5.2\libgcc.a(_umoddi3.o)

.debug_pubnames
                0x00000000    0x23959
 *(.debug_pubnames)
 .debug_pubnames
                0x00000000     0x1234 build/default/production/_ext/1246622842/24lcxxx.o
 .debug_pubnames
                0x00001234     0x1186 build/default/production/_ext/1246622842/25vfxxx.o
 .debug_pubnames
                0x000023ba     0x11f0 build/default/production/_ext/1246622842/buzzer.o
 .debug_pubnames
                0x000035aa     0x122c build/default/production/_ext/1246622842/clock.o
 .debug_pubnames
                0x000047d6     0x19b6 build/default/production/_ext/1246622842/company.o
 .debug_pubnames
                0x0000618c     0x126b build/default/production/_ext/1246622842/des.o
 .debug_pubnames
                0x000073f7     0x1258 build/default/production/_ext/1246622842/disp.o
 .debug_pubnames
                0x0000864f     0x154e build/default/production/_ext/1246622842/ic_card.o
 .debug_pubnames
                0x00009b9d     0x11f7 build/default/production/_ext/1246622842/iic.o
 .debug_pubnames
                0x0000ad94     0x12f4 build/default/production/_ext/1218090624/init.o
 .debug_pubnames
                0x0000c088     0x13d5 build/default/production/_ext/1218090624/kernel.o
 .debug_pubnames
                0x0000d45d     0x12d8 build/default/production/_ext/1246622842/key.o
 .debug_pubnames
                0x0000e735     0x123d build/default/production/_ext/1246622842/lcd.o
 .debug_pubnames
                0x0000f972     0x1421 build/default/production/_ext/1246622842/lngctrl.o
 .debug_pubnames
                0x00010d93     0x1284 build/default/production/_ext/1246622842/lngdebug.o
 .debug_pubnames
                0x00012017     0x1237 build/default/production/_ext/1218090624/main.o
 .debug_pubnames
                0x0001324e     0x1287 build/default/production/_ext/1218090624/main_ui.o
 .debug_pubnames
                0x000144d5     0x149e build/default/production/_ext/1218090624/module_test.o
 .debug_pubnames
                0x00015973     0x1324 build/default/production/_ext/1246622842/nand.o
 .debug_pubnames
                0x00016c97     0x1202 build/default/production/_ext/1246622842/print.o
 .debug_pubnames
                0x00017e99     0x1455 build/default/production/_ext/1246622842/qry.o
 .debug_pubnames
                0x000192ee     0x12f8 build/default/production/_ext/1218090624/sign.o
 .debug_pubnames
                0x0001a5e6     0x12dc build/default/production/_ext/1246622842/soe.o
 .debug_pubnames
                0x0001b8c2     0x1241 build/default/production/_ext/1218090624/store.o
 .debug_pubnames
                0x0001cb03     0x1ac4 build/default/production/_ext/1218090624/sysset.o
 .debug_pubnames
                0x0001e5c7     0x122f build/default/production/_ext/1246622842/TempDetection.o
 .debug_pubnames
                0x0001f7f6     0x11cd build/default/production/_ext/1246622842/uart.o
 .debug_pubnames
                0x000209c3     0x129d build/default/production/_ext/1246622842/gas_log.o
 .debug_pubnames
                0x00021c60     0x1295 build/default/production/_ext/1246622842/gas_log_sp.o
 .debug_pubnames
                0x00022ef5       0x24 d:/program files (x86)/microchip/xc32/v1.30/bin/../lib/gcc/pic32mx/4.5.2/../../../../pic32mx/lib\libmchp_peripheral.a(open_core_timer_lib.o)
 .debug_pubnames
                0x00022f19       0x26 d:/program files (x86)/microchip/xc32/v1.30/bin/../lib/gcc/pic32mx/4.5.2/../../../../pic32mx/lib\libmchp_peripheral.a(update_core_timer_lib.o)
 .debug_pubnames
                0x00022f3f       0x3b d:/program files (x86)/microchip/xc32/v1.30/bin/../lib/gcc/pic32mx/4.5.2/../../../../pic32mx/lib\libmchp_peripheral_32MX795F512L.a(pcache.o)
 .debug_pubnames
                0x00022f7a       0x29 d:/program files (x86)/microchip/xc32/v1.30/bin/../lib/gcc/pic32mx/4.5.2/../../../../pic32mx/lib\libmchp_peripheral_32MX795F512L.a(int_configure_system_lib.o)
 .debug_pubnames
                0x00022fa3       0x2a d:/program files (x86)/microchip/xc32/v1.30/bin/../lib/gcc/pic32mx/4.5.2/../../../../pic32mx/lib\libmchp_peripheral_32MX795F512L.a(int_enable_interrupts_lib.o)
 .debug_pubnames
                0x00022fcd       0x2b d:/program files (x86)/microchip/xc32/v1.30/bin/../lib/gcc/pic32mx/4.5.2/../../../../pic32mx/lib\libmchp_peripheral_32MX795F512L.a(int_disable_interrupts_lib.o)
 .debug_pubnames
                0x00022ff8       0x2b d:/program files (x86)/microchip/xc32/v1.30/bin/../lib/gcc/pic32mx/4.5.2/../../../../pic32mx/lib\libmchp_peripheral_32MX795F512L.a(int_restore_interrupts_lib.o)
 .debug_pubnames
                0x00023023       0xca d:/program files (x86)/microchip/xc32/v1.30/bin/../lib/gcc/pic32mx/4.5.2/../../../../pic32mx/lib\libmchp_peripheral_32MX795F512L.a(int_tbl_lib.o)
 .debug_pubnames
                0x000230ed       0x2b d:/program files (x86)/microchip/xc32/v1.30/bin/../lib/gcc/pic32mx/4.5.2/../../../../pic32mx/lib\libmchp_peripheral_32MX795F512L.a(port_set_pins_digital_in_lib.o)
 .debug_pubnames
                0x00023118       0x2c d:/program files (x86)/microchip/xc32/v1.30/bin/../lib/gcc/pic32mx/4.5.2/../../../../pic32mx/lib\libmchp_peripheral_32MX795F512L.a(port_set_pins_digital_out_lib.o)
 .debug_pubnames
                0x00023144       0xb1 d:/program files (x86)/microchip/xc32/v1.30/bin/../lib/gcc/pic32mx/4.5.2/../../../../pic32mx/lib\libmchp_peripheral_32MX795F512L.a(uart_lib.o)
 .debug_pubnames
                0x000231f5       0x1f d:/program files (x86)/microchip/xc32/v1.30/bin/../lib/gcc/pic32mx/4.5.2/../../../../pic32mx/lib\libmchp_peripheral_32MX795F512L.a(idle_i2c2_lib_legacy.o)
 .debug_pubnames
                0x00023214       0x25 d:/program files (x86)/microchip/xc32/v1.30/bin/../lib/gcc/pic32mx/4.5.2/../../../../pic32mx/lib\libmchp_peripheral_32MX795F512L.a(master_read_i2c2_lib_legacy.o)
 .debug_pubnames
                0x00023239       0x26 d:/program files (x86)/microchip/xc32/v1.30/bin/../lib/gcc/pic32mx/4.5.2/../../../../pic32mx/lib\libmchp_peripheral_32MX795F512L.a(master_write_i2c2_lib_legacy.o)
 .debug_pubnames
                0x0002325f       0x23 d:/program files (x86)/microchip/xc32/v1.30/bin/../lib/gcc/pic32mx/4.5.2/../../../../pic32mx/lib\libmchp_peripheral_32MX795F512L.a(I2CBusIsIdle.o)
 .debug_pubnames
                0x00023282       0x2d d:/program files (x86)/microchip/xc32/v1.30/bin/../lib/gcc/pic32mx/4.5.2/../../../../pic32mx/lib\libmchp_peripheral_32MX795F512L.a(I2CByteWasAcknowledged.o)
 .debug_pubnames
                0x000232af       0x23 d:/program files (x86)/microchip/xc32/v1.30/bin/../lib/gcc/pic32mx/4.5.2/../../../../pic32mx/lib\libmchp_peripheral_32MX795F512L.a(I2CConfigure.o)
 .debug_pubnames
                0x000232d2       0x20 d:/program files (x86)/microchip/xc32/v1.30/bin/../lib/gcc/pic32mx/4.5.2/../../../../pic32mx/lib\libmchp_peripheral_32MX795F512L.a(I2CEnable.o)
 .debug_pubnames
                0x000232f2       0x21 d:/program files (x86)/microchip/xc32/v1.30/bin/../lib/gcc/pic32mx/4.5.2/../../../../pic32mx/lib\libmchp_peripheral_32MX795F512L.a(I2CGetByte.o)
 .debug_pubnames
                0x00023313       0x23 d:/program files (x86)/microchip/xc32/v1.30/bin/../lib/gcc/pic32mx/4.5.2/../../../../pic32mx/lib\libmchp_peripheral_32MX795F512L.a(I2CGetStatus.o)
 .debug_pubnames
                0x00023336       0x31 d:/program files (x86)/microchip/xc32/v1.30/bin/../lib/gcc/pic32mx/4.5.2/../../../../pic32mx/lib\libmchp_peripheral_32MX795F512L.a(I2CReceivedDataIsAvailable.o)
 .debug_pubnames
                0x00023367       0x28 d:/program files (x86)/microchip/xc32/v1.30/bin/../lib/gcc/pic32mx/4.5.2/../../../../pic32mx/lib\libmchp_peripheral_32MX795F512L.a(I2CReceiverEnable.o)
 .debug_pubnames
                0x0002338f       0x25 d:/program files (x86)/microchip/xc32/v1.30/bin/../lib/gcc/pic32mx/4.5.2/../../../../pic32mx/lib\libmchp_peripheral_32MX795F512L.a(I2CRepeatStart.o)
 .debug_pubnames
                0x000233b4       0x22 d:/program files (x86)/microchip/xc32/v1.30/bin/../lib/gcc/pic32mx/4.5.2/../../../../pic32mx/lib\libmchp_peripheral_32MX795F512L.a(I2CSendByte.o)
 .debug_pubnames
                0x000233d6       0x26 d:/program files (x86)/microchip/xc32/v1.30/bin/../lib/gcc/pic32mx/4.5.2/../../../../pic32mx/lib\libmchp_peripheral_32MX795F512L.a(I2CSetFrequency.o)
 .debug_pubnames
                0x000233fc       0x29 d:/program files (x86)/microchip/xc32/v1.30/bin/../lib/gcc/pic32mx/4.5.2/../../../../pic32mx/lib\libmchp_peripheral_32MX795F512L.a(I2CSetSlaveAddress.o)
 .debug_pubnames
                0x00023425       0x1f d:/program files (x86)/microchip/xc32/v1.30/bin/../lib/gcc/pic32mx/4.5.2/../../../../pic32mx/lib\libmchp_peripheral_32MX795F512L.a(I2CStart.o)
 .debug_pubnames
                0x00023444       0x1e d:/program files (x86)/microchip/xc32/v1.30/bin/../lib/gcc/pic32mx/4.5.2/../../../../pic32mx/lib\libmchp_peripheral_32MX795F512L.a(I2CStop.o)
 .debug_pubnames
                0x00023462       0x32 d:/program files (x86)/microchip/xc32/v1.30/bin/../lib/gcc/pic32mx/4.5.2/../../../../pic32mx/lib\libmchp_peripheral_32MX795F512L.a(I2CTransmissionHasCompleted.o)
 .debug_pubnames
                0x00023494       0x2c d:/program files (x86)/microchip/xc32/v1.30/bin/../lib/gcc/pic32mx/4.5.2/../../../../pic32mx/lib\libmchp_peripheral_32MX795F512L.a(I2CTransmitterIsReady.o)
 .debug_pubnames
                0x000234c0       0x24 d:/program files (x86)/microchip/xc32/v1.30/bin/../lib/gcc/pic32mx/4.5.2\libgcc.a(floatunsisf.o)
 .debug_pubnames
                0x000234e4       0x33 d:/program files (x86)/microchip/xc32/v1.30/bin/../lib/gcc/pic32mx/4.5.2/../../../../pic32mx/lib\libpic32.a(default-bootstrap-exception-handler.o)
 .debug_pubnames
                0x00023517       0x20 d:/program files (x86)/microchip/xc32/v1.30/bin/../lib/gcc/pic32mx/4.5.2/../../../../pic32mx/lib\libpic32.a(default-on-reset.o)
 .debug_pubnames
                0x00023537       0x24 d:/program files (x86)/microchip/xc32/v1.30/bin/../lib/gcc/pic32mx/4.5.2/../../../../pic32mx/lib\libpic32.a(default-on-bootstrap.o)
 .debug_pubnames
                0x0002355b       0x31 d:/program files (x86)/microchip/xc32/v1.30/bin/../lib/gcc/pic32mx/4.5.2/../../../../pic32mx/lib\libpic32.a(default-general-exception-handler.o)
 .debug_pubnames
                0x0002358c       0x1b d:/program files (x86)/microchip/xc32/v1.30/bin/../lib/gcc/pic32mx/4.5.2/../../../../pic32mx/lib\libc.a(atoi.o)
 .debug_pubnames
                0x000235a7       0x1b d:/program files (x86)/microchip/xc32/v1.30/bin/../lib/gcc/pic32mx/4.5.2/../../../../pic32mx/lib\libc.a(cldiv.o)
 .debug_pubnames
                0x000235c2       0x24 d:/program files (x86)/microchip/xc32/v1.30/bin/../lib/gcc/pic32mx/4.5.2/../../../../pic32mx/lib\libc.a(itoa.o)
 .debug_pubnames
                0x000235e6       0x1d d:/program files (x86)/microchip/xc32/v1.30/bin/../lib/gcc/pic32mx/4.5.2/../../../../pic32mx/lib\libc.a(strchr.o)
 .debug_pubnames
                0x00023603       0x1d d:/program files (x86)/microchip/xc32/v1.30/bin/../lib/gcc/pic32mx/4.5.2/../../../../pic32mx/lib\libc.a(strstr.o)
 .debug_pubnames
                0x00023620       0x29 d:/program files (x86)/microchip/xc32/v1.30/bin/../lib/gcc/pic32mx/4.5.2/../../../../pic32mx/lib\libc.a(strtol.o)
 .debug_pubnames
                0x00023649       0x1b d:/program files (x86)/microchip/xc32/v1.30/bin/../lib/gcc/pic32mx/4.5.2/../../../../pic32mx/lib\libc.a(atof.o)
 .debug_pubnames
                0x00023664       0x2a d:/program files (x86)/microchip/xc32/v1.30/bin/../lib/gcc/pic32mx/4.5.2/../../../../pic32mx/lib\libc.a(sprintf_cdfFnopuxX.eo)
 .debug_pubnames
                0x0002368e       0x1f d:/program files (x86)/microchip/xc32/v1.30/bin/../lib/gcc/pic32mx/4.5.2/../../../../pic32mx/lib\libc.a(vsprintf.o)
 .debug_pubnames
                0x000236ad       0xe1 d:/program files (x86)/microchip/xc32/v1.30/bin/../lib/gcc/pic32mx/4.5.2/../../../../pic32mx/lib\libc.a(ctypef.o)
 .debug_pubnames
                0x0002378e       0x1e d:/program files (x86)/microchip/xc32/v1.30/bin/../lib/gcc/pic32mx/4.5.2/../../../../pic32mx/lib\libc.a(strncmp.o)
 .debug_pubnames
                0x000237ac       0x29 d:/program files (x86)/microchip/xc32/v1.30/bin/../lib/gcc/pic32mx/4.5.2/../../../../pic32mx/lib\libc.a(strtof.o)
 .debug_pubnames
                0x000237d5       0x2b d:/program files (x86)/microchip/xc32/v1.30/bin/../lib/gcc/pic32mx/4.5.2/../../../../pic32mx/lib\libc.a(doprnt_cdfFnopuxX.eo)
 .debug_pubnames
                0x00023800       0x1f d:/program files (x86)/microchip/xc32/v1.30/bin/../lib/gcc/pic32mx/4.5.2/../../../../pic32mx/lib\libc.a(doprnt.o)
 .debug_pubnames
                0x0002381f       0x1c d:/program files (x86)/microchip/xc32/v1.30/bin/../lib/gcc/pic32mx/4.5.2/../../../../pic32mx/lib\libc.a(_fputc_simple.o)
 .debug_pubnames
                0x0002383b       0x1e d:/program files (x86)/microchip/xc32/v1.30/bin/../lib/gcc/pic32mx/4.5.2/../../../../pic32mx/lib\libc.a(_flsbuf_simple.o)
 .debug_pubnames
                0x00023859       0x1c d:/program files (x86)/microchip/xc32/v1.30/bin/../lib/gcc/pic32mx/4.5.2/../../../../pic32mx/lib\libpic32.a(write.o)
 .debug_pubnames
                0x00023875       0x20 d:/program files (x86)/microchip/xc32/v1.30/bin/../lib/gcc/pic32mx/4.5.2/../../../../pic32mx/lib\libpic32.a(_mon_putc.o)
 .debug_pubnames
                0x00023895       0x22 d:/program files (x86)/microchip/xc32/v1.30/bin/../lib/gcc/pic32mx/4.5.2/../../../../pic32mx/lib\libe.a(_floatdisf.o)
 .debug_pubnames
                0x000238b7       0x1f d:/program files (x86)/microchip/xc32/v1.30/bin/../lib/gcc/pic32mx/4.5.2/../../../../pic32mx/lib\libe.a(_strtof.o)
 .debug_pubnames
                0x000238d6       0x1f d:/program files (x86)/microchip/xc32/v1.30/bin/../lib/gcc/pic32mx/4.5.2/../../../../pic32mx/lib\libe.a(_ldexpf.o)
 .debug_pubnames
                0x000238f5       0x24 d:/program files (x86)/microchip/xc32/v1.30/bin/../lib/gcc/pic32mx/4.5.2\libgcc.a(_floatundisf.o)
 .debug_pubnames
                0x00023919       0x20 d:/program files (x86)/microchip/xc32/v1.30/bin/../lib/gcc/pic32mx/4.5.2\libgcc.a(_udivdi3.o)
 .debug_pubnames
                0x00023939       0x20 d:/program files (x86)/microchip/xc32/v1.30/bin/../lib/gcc/pic32mx/4.5.2\libgcc.a(_umoddi3.o)

.debug_info     0x00000000    0x892a3
 *(.debug_info .gnu.linkonce.wi.*)
 .debug_info    0x00000000     0x3d96 build/default/production/_ext/1246622842/24lcxxx.o
 .debug_info    0x00003d96     0x3906 build/default/production/_ext/1246622842/25vfxxx.o
 .debug_info    0x0000769c     0x3cd9 build/default/production/_ext/1246622842/buzzer.o
 .debug_info    0x0000b375     0x3cdc build/default/production/_ext/1246622842/clock.o
 .debug_info    0x0000f051     0x7b36 build/default/production/_ext/1246622842/company.o
 .debug_info    0x00016b87     0x3f31 build/default/production/_ext/1246622842/des.o
 .debug_info    0x0001aab8     0x48b8 build/default/production/_ext/1246622842/disp.o
 .debug_info    0x0001f370     0x62ff build/default/production/_ext/1246622842/ic_card.o
 .debug_info    0x0002566f     0x40f4 build/default/production/_ext/1246622842/iic.o
 .debug_info    0x00029763     0x56c4 build/default/production/_ext/1218090624/init.o
 .debug_info    0x0002ee27     0x4caa build/default/production/_ext/1218090624/kernel.o
 .debug_info    0x00033ad1     0x4b18 build/default/production/_ext/1246622842/key.o
 .debug_info    0x000385e9     0x3f67 build/default/production/_ext/1246622842/lcd.o
 .debug_info    0x0003c550     0x5de8 build/default/production/_ext/1246622842/lngctrl.o
 .debug_info    0x00042338     0x4818 build/default/production/_ext/1246622842/lngdebug.o
 .debug_info    0x00046b50     0x3d4a build/default/production/_ext/1218090624/main.o
 .debug_info    0x0004a89a     0x41a0 build/default/production/_ext/1218090624/main_ui.o
 .debug_info    0x0004ea3a     0x47d1 build/default/production/_ext/1218090624/module_test.o
 .debug_info    0x0005320b     0x4408 build/default/production/_ext/1246622842/nand.o
 .debug_info    0x00057613     0x3e4f build/default/production/_ext/1246622842/print.o
 .debug_info    0x0005b462     0x4d00 build/default/production/_ext/1246622842/qry.o
 .debug_info    0x00060162     0x452f build/default/production/_ext/1218090624/sign.o
 .debug_info    0x00064691     0x47df build/default/production/_ext/1246622842/soe.o
 .debug_info    0x00068e70     0x3b65 build/default/production/_ext/1218090624/store.o
 .debug_info    0x0006c9d5     0x8158 build/default/production/_ext/1218090624/sysset.o
 .debug_info    0x00074b2d     0x3bb5 build/default/production/_ext/1246622842/TempDetection.o
 .debug_info    0x000786e2     0x4c4c build/default/production/_ext/1246622842/uart.o
 .debug_info    0x0007d32e     0x4191 build/default/production/_ext/1246622842/gas_log.o
 .debug_info    0x000814bf     0x412d build/default/production/_ext/1246622842/gas_log_sp.o
 .debug_info    0x000855ec       0xaa d:/program files (x86)/microchip/xc32/v1.30/bin/../lib/gcc/pic32mx/4.5.2/../../../../pic32mx/lib\libmchp_peripheral.a(open_core_timer_lib.o)
 .debug_info    0x00085696       0xae d:/program files (x86)/microchip/xc32/v1.30/bin/../lib/gcc/pic32mx/4.5.2/../../../../pic32mx/lib\libmchp_peripheral.a(update_core_timer_lib.o)
 .debug_info    0x00085744       0xbf d:/program files (x86)/microchip/xc32/v1.30/bin/../lib/gcc/pic32mx/4.5.2/../../../../pic32mx/lib\libmchp_peripheral_32MX795F512L.a(pcache.o)
 .debug_info    0x00085803       0xb2 d:/program files (x86)/microchip/xc32/v1.30/bin/../lib/gcc/pic32mx/4.5.2/../../../../pic32mx/lib\libmchp_peripheral_32MX795F512L.a(int_configure_system_lib.o)
 .debug_info    0x000858b5       0xb4 d:/program files (x86)/microchip/xc32/v1.30/bin/../lib/gcc/pic32mx/4.5.2/../../../../pic32mx/lib\libmchp_peripheral_32MX795F512L.a(int_enable_interrupts_lib.o)
 .debug_info    0x00085969       0xb6 d:/program files (x86)/microchip/xc32/v1.30/bin/../lib/gcc/pic32mx/4.5.2/../../../../pic32mx/lib\libmchp_peripheral_32MX795F512L.a(int_disable_interrupts_lib.o)
 .debug_info    0x00085a1f       0xb6 d:/program files (x86)/microchip/xc32/v1.30/bin/../lib/gcc/pic32mx/4.5.2/../../../../pic32mx/lib\libmchp_peripheral_32MX795F512L.a(int_restore_interrupts_lib.o)
 .debug_info    0x00085ad5      0x196 d:/program files (x86)/microchip/xc32/v1.30/bin/../lib/gcc/pic32mx/4.5.2/../../../../pic32mx/lib\libmchp_peripheral_32MX795F512L.a(int_tbl_lib.o)
 .debug_info    0x00085c6b       0xba d:/program files (x86)/microchip/xc32/v1.30/bin/../lib/gcc/pic32mx/4.5.2/../../../../pic32mx/lib\libmchp_peripheral_32MX795F512L.a(port_set_pins_digital_in_lib.o)
 .debug_info    0x00085d25       0xbc d:/program files (x86)/microchip/xc32/v1.30/bin/../lib/gcc/pic32mx/4.5.2/../../../../pic32mx/lib\libmchp_peripheral_32MX795F512L.a(port_set_pins_digital_out_lib.o)
 .debug_info    0x00085de1        0x0 d:/program files (x86)/microchip/xc32/v1.30/bin/../lib/gcc/pic32mx/4.5.2/../../../../pic32mx/lib\libmchp_peripheral_32MX795F512L.a(_ports_tbl_libp.o)
 .debug_info    0x00085de1      0x175 d:/program files (x86)/microchip/xc32/v1.30/bin/../lib/gcc/pic32mx/4.5.2/../../../../pic32mx/lib\libmchp_peripheral_32MX795F512L.a(uart_lib.o)
 .debug_info    0x00085f56       0xa4 d:/program files (x86)/microchip/xc32/v1.30/bin/../lib/gcc/pic32mx/4.5.2/../../../../pic32mx/lib\libmchp_peripheral_32MX795F512L.a(idle_i2c2_lib_legacy.o)
 .debug_info    0x00085ffa       0xb1 d:/program files (x86)/microchip/xc32/v1.30/bin/../lib/gcc/pic32mx/4.5.2/../../../../pic32mx/lib\libmchp_peripheral_32MX795F512L.a(master_read_i2c2_lib_legacy.o)
 .debug_info    0x000860ab       0xb3 d:/program files (x86)/microchip/xc32/v1.30/bin/../lib/gcc/pic32mx/4.5.2/../../../../pic32mx/lib\libmchp_peripheral_32MX795F512L.a(master_write_i2c2_lib_legacy.o)
 .debug_info    0x0008615e       0xa0 d:/program files (x86)/microchip/xc32/v1.30/bin/../lib/gcc/pic32mx/4.5.2/../../../../pic32mx/lib\libmchp_peripheral_32MX795F512L.a(I2CBusIsIdle.o)
 .debug_info    0x000861fe       0xb4 d:/program files (x86)/microchip/xc32/v1.30/bin/../lib/gcc/pic32mx/4.5.2/../../../../pic32mx/lib\libmchp_peripheral_32MX795F512L.a(I2CByteWasAcknowledged.o)
 .debug_info    0x000862b2       0xa0 d:/program files (x86)/microchip/xc32/v1.30/bin/../lib/gcc/pic32mx/4.5.2/../../../../pic32mx/lib\libmchp_peripheral_32MX795F512L.a(I2CConfigure.o)
 .debug_info    0x00086352       0x9a d:/program files (x86)/microchip/xc32/v1.30/bin/../lib/gcc/pic32mx/4.5.2/../../../../pic32mx/lib\libmchp_peripheral_32MX795F512L.a(I2CEnable.o)
 .debug_info    0x000863ec       0x9c d:/program files (x86)/microchip/xc32/v1.30/bin/../lib/gcc/pic32mx/4.5.2/../../../../pic32mx/lib\libmchp_peripheral_32MX795F512L.a(I2CGetByte.o)
 .debug_info    0x00086488       0xa0 d:/program files (x86)/microchip/xc32/v1.30/bin/../lib/gcc/pic32mx/4.5.2/../../../../pic32mx/lib\libmchp_peripheral_32MX795F512L.a(I2CGetStatus.o)
 .debug_info    0x00086528       0xbc d:/program files (x86)/microchip/xc32/v1.30/bin/../lib/gcc/pic32mx/4.5.2/../../../../pic32mx/lib\libmchp_peripheral_32MX795F512L.a(I2CReceivedDataIsAvailable.o)
 .debug_info    0x000865e4       0xaa d:/program files (x86)/microchip/xc32/v1.30/bin/../lib/gcc/pic32mx/4.5.2/../../../../pic32mx/lib\libmchp_peripheral_32MX795F512L.a(I2CReceiverEnable.o)
 .debug_info    0x0008668e       0xa4 d:/program files (x86)/microchip/xc32/v1.30/bin/../lib/gcc/pic32mx/4.5.2/../../../../pic32mx/lib\libmchp_peripheral_32MX795F512L.a(I2CRepeatStart.o)
 .debug_info    0x00086732       0x9e d:/program files (x86)/microchip/xc32/v1.30/bin/../lib/gcc/pic32mx/4.5.2/../../../../pic32mx/lib\libmchp_peripheral_32MX795F512L.a(I2CSendByte.o)
 .debug_info    0x000867d0       0xa6 d:/program files (x86)/microchip/xc32/v1.30/bin/../lib/gcc/pic32mx/4.5.2/../../../../pic32mx/lib\libmchp_peripheral_32MX795F512L.a(I2CSetFrequency.o)
 .debug_info    0x00086876       0xac d:/program files (x86)/microchip/xc32/v1.30/bin/../lib/gcc/pic32mx/4.5.2/../../../../pic32mx/lib\libmchp_peripheral_32MX795F512L.a(I2CSetSlaveAddress.o)
 .debug_info    0x00086922       0x98 d:/program files (x86)/microchip/xc32/v1.30/bin/../lib/gcc/pic32mx/4.5.2/../../../../pic32mx/lib\libmchp_peripheral_32MX795F512L.a(I2CStart.o)
 .debug_info    0x000869ba       0x96 d:/program files (x86)/microchip/xc32/v1.30/bin/../lib/gcc/pic32mx/4.5.2/../../../../pic32mx/lib\libmchp_peripheral_32MX795F512L.a(I2CStop.o)
 .debug_info    0x00086a50       0xbe d:/program files (x86)/microchip/xc32/v1.30/bin/../lib/gcc/pic32mx/4.5.2/../../../../pic32mx/lib\libmchp_peripheral_32MX795F512L.a(I2CTransmissionHasCompleted.o)
 .debug_info    0x00086b0e       0xb2 d:/program files (x86)/microchip/xc32/v1.30/bin/../lib/gcc/pic32mx/4.5.2/../../../../pic32mx/lib\libmchp_peripheral_32MX795F512L.a(I2CTransmitterIsReady.o)
 .debug_info    0x00086bc0        0x0 d:/program files (x86)/microchip/xc32/v1.30/bin/../lib/gcc/pic32mx/4.5.2/../../../../pic32mx/lib\libmchp_peripheral_32MX795F512L.a(I2CPrivate.o)
 .debug_info    0x00086bc0      0x157 d:/program files (x86)/microchip/xc32/v1.30/bin/../lib/gcc/pic32mx/4.5.2\libgcc.a(floatunsisf.o)
 .debug_info    0x00086d17       0xde d:/program files (x86)/microchip/xc32/v1.30/bin/../lib/gcc/pic32mx/4.5.2/../../../../pic32mx/lib\libpic32.a(default-bootstrap-exception-handler.o)
 .debug_info    0x00086df5       0xb8 d:/program files (x86)/microchip/xc32/v1.30/bin/../lib/gcc/pic32mx/4.5.2/../../../../pic32mx/lib\libpic32.a(default-on-reset.o)
 .debug_info    0x00086ead       0xc0 d:/program files (x86)/microchip/xc32/v1.30/bin/../lib/gcc/pic32mx/4.5.2/../../../../pic32mx/lib\libpic32.a(default-on-bootstrap.o)
 .debug_info    0x00086f6d       0xda d:/program files (x86)/microchip/xc32/v1.30/bin/../lib/gcc/pic32mx/4.5.2/../../../../pic32mx/lib\libpic32.a(default-general-exception-handler.o)
 .debug_info    0x00087047       0xad d:/program files (x86)/microchip/xc32/v1.30/bin/../lib/gcc/pic32mx/4.5.2/../../../../pic32mx/lib\libc.a(atoi.o)
 .debug_info    0x000870f4       0xae d:/program files (x86)/microchip/xc32/v1.30/bin/../lib/gcc/pic32mx/4.5.2/../../../../pic32mx/lib\libc.a(cldiv.o)
 .debug_info    0x000871a2        0x0 d:/program files (x86)/microchip/xc32/v1.30/bin/../lib/gcc/pic32mx/4.5.2/../../../../pic32mx/lib\libc.a(ctype.o)
 .debug_info    0x000871a2       0xc0 d:/program files (x86)/microchip/xc32/v1.30/bin/../lib/gcc/pic32mx/4.5.2/../../../../pic32mx/lib\libc.a(itoa.o)
 .debug_info    0x00087262       0xb1 d:/program files (x86)/microchip/xc32/v1.30/bin/../lib/gcc/pic32mx/4.5.2/../../../../pic32mx/lib\libc.a(strchr.o)
 .debug_info    0x00087313       0xb1 d:/program files (x86)/microchip/xc32/v1.30/bin/../lib/gcc/pic32mx/4.5.2/../../../../pic32mx/lib\libc.a(strstr.o)
 .debug_info    0x000873c4       0xc7 d:/program files (x86)/microchip/xc32/v1.30/bin/../lib/gcc/pic32mx/4.5.2/../../../../pic32mx/lib\libc.a(strtol.o)
 .debug_info    0x0008748b       0xad d:/program files (x86)/microchip/xc32/v1.30/bin/../lib/gcc/pic32mx/4.5.2/../../../../pic32mx/lib\libc.a(atof.o)
 .debug_info    0x00087538       0xbf d:/program files (x86)/microchip/xc32/v1.30/bin/../lib/gcc/pic32mx/4.5.2/../../../../pic32mx/lib\libc.a(sprintf_cdfFnopuxX.eo)
 .debug_info    0x000875f7       0xb5 d:/program files (x86)/microchip/xc32/v1.30/bin/../lib/gcc/pic32mx/4.5.2/../../../../pic32mx/lib\libc.a(vsprintf.o)
 .debug_info    0x000876ac      0x215 d:/program files (x86)/microchip/xc32/v1.30/bin/../lib/gcc/pic32mx/4.5.2/../../../../pic32mx/lib\libc.a(ctypef.o)
 .debug_info    0x000878c1        0x0 d:/program files (x86)/microchip/xc32/v1.30/bin/../lib/gcc/pic32mx/4.5.2/../../../../pic32mx/lib\libc.a(errno.o)
 .debug_info    0x000878c1       0xb3 d:/program files (x86)/microchip/xc32/v1.30/bin/../lib/gcc/pic32mx/4.5.2/../../../../pic32mx/lib\libc.a(strncmp.o)
 .debug_info    0x00087974       0xdf d:/program files (x86)/microchip/xc32/v1.30/bin/../lib/gcc/pic32mx/4.5.2/../../../../pic32mx/lib\libc.a(strtof.o)
 .debug_info    0x00087a53       0xe0 d:/program files (x86)/microchip/xc32/v1.30/bin/../lib/gcc/pic32mx/4.5.2/../../../../pic32mx/lib\libc.a(doprnt_cdfFnopuxX.eo)
 .debug_info    0x00087b33       0xdd d:/program files (x86)/microchip/xc32/v1.30/bin/../lib/gcc/pic32mx/4.5.2/../../../../pic32mx/lib\libc.a(doprnt.o)
 .debug_info    0x00087c10       0xaf d:/program files (x86)/microchip/xc32/v1.30/bin/../lib/gcc/pic32mx/4.5.2/../../../../pic32mx/lib\libc.a(_fputc_simple.o)
 .debug_info    0x00087cbf        0x0 d:/program files (x86)/microchip/xc32/v1.30/bin/../lib/gcc/pic32mx/4.5.2/../../../../pic32mx/lib\libc.a(powersf.o)
 .debug_info    0x00087cbf        0x0 d:/program files (x86)/microchip/xc32/v1.30/bin/../lib/gcc/pic32mx/4.5.2/../../../../pic32mx/lib\libc.a(_iob.o)
 .debug_info    0x00087cbf       0xb2 d:/program files (x86)/microchip/xc32/v1.30/bin/../lib/gcc/pic32mx/4.5.2/../../../../pic32mx/lib\libc.a(_flsbuf_simple.o)
 .debug_info    0x00087d71       0xa9 d:/program files (x86)/microchip/xc32/v1.30/bin/../lib/gcc/pic32mx/4.5.2/../../../../pic32mx/lib\libpic32.a(write.o)
 .debug_info    0x00087e1a       0xb1 d:/program files (x86)/microchip/xc32/v1.30/bin/../lib/gcc/pic32mx/4.5.2/../../../../pic32mx/lib\libpic32.a(_mon_putc.o)
 .debug_info    0x00087ecb        0x0 d:/program files (x86)/microchip/xc32/v1.30/bin/../lib/gcc/pic32mx/4.5.2/../../../../pic32mx/lib\libpic32.a(xc32_uart.o)
 .debug_info    0x00087ecb       0xc7 d:/program files (x86)/microchip/xc32/v1.30/bin/../lib/gcc/pic32mx/4.5.2/../../../../pic32mx/lib\libe.a(_floatdisf.o)
 .debug_info    0x00087f92       0xb7 d:/program files (x86)/microchip/xc32/v1.30/bin/../lib/gcc/pic32mx/4.5.2/../../../../pic32mx/lib\libe.a(_strtof.o)
 .debug_info    0x00088049       0xc4 d:/program files (x86)/microchip/xc32/v1.30/bin/../lib/gcc/pic32mx/4.5.2/../../../../pic32mx/lib\libe.a(_ldexpf.o)
 .debug_info    0x0008810d      0x29f d:/program files (x86)/microchip/xc32/v1.30/bin/../lib/gcc/pic32mx/4.5.2\libgcc.a(_floatundisf.o)
 .debug_info    0x000883ac      0x75f d:/program files (x86)/microchip/xc32/v1.30/bin/../lib/gcc/pic32mx/4.5.2\libgcc.a(_udivdi3.o)
 .debug_info    0x00088b0b      0x798 d:/program files (x86)/microchip/xc32/v1.30/bin/../lib/gcc/pic32mx/4.5.2\libgcc.a(_umoddi3.o)

.debug_abbrev   0x00000000     0x669d
 *(.debug_abbrev)
 .debug_abbrev  0x00000000      0x28b build/default/production/_ext/1246622842/24lcxxx.o
 .debug_abbrev  0x0000028b      0x219 build/default/production/_ext/1246622842/25vfxxx.o
 .debug_abbrev  0x000004a4      0x268 build/default/production/_ext/1246622842/buzzer.o
 .debug_abbrev  0x0000070c      0x27c build/default/production/_ext/1246622842/clock.o
 .debug_abbrev  0x00000988      0x41a build/default/production/_ext/1246622842/company.o
 .debug_abbrev  0x00000da2      0x2b2 build/default/production/_ext/1246622842/des.o
 .debug_abbrev  0x00001054      0x335 build/default/production/_ext/1246622842/disp.o
 .debug_abbrev  0x00001389      0x418 build/default/production/_ext/1246622842/ic_card.o
 .debug_abbrev  0x000017a1      0x2dd build/default/production/_ext/1246622842/iic.o
 .debug_abbrev  0x00001a7e      0x473 build/default/production/_ext/1218090624/init.o
 .debug_abbrev  0x00001ef1      0x302 build/default/production/_ext/1218090624/kernel.o
 .debug_abbrev  0x000021f3      0x334 build/default/production/_ext/1246622842/key.o
 .debug_abbrev  0x00002527      0x32b build/default/production/_ext/1246622842/lcd.o
 .debug_abbrev  0x00002852      0x39d build/default/production/_ext/1246622842/lngctrl.o
 .debug_abbrev  0x00002bef      0x328 build/default/production/_ext/1246622842/lngdebug.o
 .debug_abbrev  0x00002f17      0x2fa build/default/production/_ext/1218090624/main.o
 .debug_abbrev  0x00003211      0x2ec build/default/production/_ext/1218090624/main_ui.o
 .debug_abbrev  0x000034fd      0x325 build/default/production/_ext/1218090624/module_test.o
 .debug_abbrev  0x00003822      0x375 build/default/production/_ext/1246622842/nand.o
 .debug_abbrev  0x00003b97      0x29c build/default/production/_ext/1246622842/print.o
 .debug_abbrev  0x00003e33      0x3de build/default/production/_ext/1246622842/qry.o
 .debug_abbrev  0x00004211      0x36d build/default/production/_ext/1218090624/sign.o
 .debug_abbrev  0x0000457e      0x362 build/default/production/_ext/1246622842/soe.o
 .debug_abbrev  0x000048e0      0x250 build/default/production/_ext/1218090624/store.o
 .debug_abbrev  0x00004b30      0x3ef build/default/production/_ext/1218090624/sysset.o
 .debug_abbrev  0x00004f1f      0x293 build/default/production/_ext/1246622842/TempDetection.o
 .debug_abbrev  0x000051b2      0x2d7 build/default/production/_ext/1246622842/uart.o
 .debug_abbrev  0x00005489      0x340 build/default/production/_ext/1246622842/gas_log.o
 .debug_abbrev  0x000057c9      0x32b build/default/production/_ext/1246622842/gas_log_sp.o
 .debug_abbrev  0x00005af4       0x25 d:/program files (x86)/microchip/xc32/v1.30/bin/../lib/gcc/pic32mx/4.5.2/../../../../pic32mx/lib\libmchp_peripheral.a(open_core_timer_lib.o)
 .debug_abbrev  0x00005b19       0x25 d:/program files (x86)/microchip/xc32/v1.30/bin/../lib/gcc/pic32mx/4.5.2/../../../../pic32mx/lib\libmchp_peripheral.a(update_core_timer_lib.o)
 .debug_abbrev  0x00005b3e       0x25 d:/program files (x86)/microchip/xc32/v1.30/bin/../lib/gcc/pic32mx/4.5.2/../../../../pic32mx/lib\libmchp_peripheral_32MX795F512L.a(pcache.o)
 .debug_abbrev  0x00005b63       0x25 d:/program files (x86)/microchip/xc32/v1.30/bin/../lib/gcc/pic32mx/4.5.2/../../../../pic32mx/lib\libmchp_peripheral_32MX795F512L.a(int_configure_system_lib.o)
 .debug_abbrev  0x00005b88       0x25 d:/program files (x86)/microchip/xc32/v1.30/bin/../lib/gcc/pic32mx/4.5.2/../../../../pic32mx/lib\libmchp_peripheral_32MX795F512L.a(int_enable_interrupts_lib.o)
 .debug_abbrev  0x00005bad       0x25 d:/program files (x86)/microchip/xc32/v1.30/bin/../lib/gcc/pic32mx/4.5.2/../../../../pic32mx/lib\libmchp_peripheral_32MX795F512L.a(int_disable_interrupts_lib.o)
 .debug_abbrev  0x00005bd2       0x25 d:/program files (x86)/microchip/xc32/v1.30/bin/../lib/gcc/pic32mx/4.5.2/../../../../pic32mx/lib\libmchp_peripheral_32MX795F512L.a(int_restore_interrupts_lib.o)
 .debug_abbrev  0x00005bf7       0x25 d:/program files (x86)/microchip/xc32/v1.30/bin/../lib/gcc/pic32mx/4.5.2/../../../../pic32mx/lib\libmchp_peripheral_32MX795F512L.a(int_tbl_lib.o)
 .debug_abbrev  0x00005c1c       0x25 d:/program files (x86)/microchip/xc32/v1.30/bin/../lib/gcc/pic32mx/4.5.2/../../../../pic32mx/lib\libmchp_peripheral_32MX795F512L.a(port_set_pins_digital_in_lib.o)
 .debug_abbrev  0x00005c41       0x25 d:/program files (x86)/microchip/xc32/v1.30/bin/../lib/gcc/pic32mx/4.5.2/../../../../pic32mx/lib\libmchp_peripheral_32MX795F512L.a(port_set_pins_digital_out_lib.o)
 .debug_abbrev  0x00005c66        0x1 d:/program files (x86)/microchip/xc32/v1.30/bin/../lib/gcc/pic32mx/4.5.2/../../../../pic32mx/lib\libmchp_peripheral_32MX795F512L.a(_ports_tbl_libp.o)
 .debug_abbrev  0x00005c67       0x38 d:/program files (x86)/microchip/xc32/v1.30/bin/../lib/gcc/pic32mx/4.5.2/../../../../pic32mx/lib\libmchp_peripheral_32MX795F512L.a(uart_lib.o)
 .debug_abbrev  0x00005c9f       0x25 d:/program files (x86)/microchip/xc32/v1.30/bin/../lib/gcc/pic32mx/4.5.2/../../../../pic32mx/lib\libmchp_peripheral_32MX795F512L.a(idle_i2c2_lib_legacy.o)
 .debug_abbrev  0x00005cc4       0x25 d:/program files (x86)/microchip/xc32/v1.30/bin/../lib/gcc/pic32mx/4.5.2/../../../../pic32mx/lib\libmchp_peripheral_32MX795F512L.a(master_read_i2c2_lib_legacy.o)
 .debug_abbrev  0x00005ce9       0x25 d:/program files (x86)/microchip/xc32/v1.30/bin/../lib/gcc/pic32mx/4.5.2/../../../../pic32mx/lib\libmchp_peripheral_32MX795F512L.a(master_write_i2c2_lib_legacy.o)
 .debug_abbrev  0x00005d0e       0x25 d:/program files (x86)/microchip/xc32/v1.30/bin/../lib/gcc/pic32mx/4.5.2/../../../../pic32mx/lib\libmchp_peripheral_32MX795F512L.a(I2CBusIsIdle.o)
 .debug_abbrev  0x00005d33       0x25 d:/program files (x86)/microchip/xc32/v1.30/bin/../lib/gcc/pic32mx/4.5.2/../../../../pic32mx/lib\libmchp_peripheral_32MX795F512L.a(I2CByteWasAcknowledged.o)
 .debug_abbrev  0x00005d58       0x25 d:/program files (x86)/microchip/xc32/v1.30/bin/../lib/gcc/pic32mx/4.5.2/../../../../pic32mx/lib\libmchp_peripheral_32MX795F512L.a(I2CConfigure.o)
 .debug_abbrev  0x00005d7d       0x25 d:/program files (x86)/microchip/xc32/v1.30/bin/../lib/gcc/pic32mx/4.5.2/../../../../pic32mx/lib\libmchp_peripheral_32MX795F512L.a(I2CEnable.o)
 .debug_abbrev  0x00005da2       0x25 d:/program files (x86)/microchip/xc32/v1.30/bin/../lib/gcc/pic32mx/4.5.2/../../../../pic32mx/lib\libmchp_peripheral_32MX795F512L.a(I2CGetByte.o)
 .debug_abbrev  0x00005dc7       0x25 d:/program files (x86)/microchip/xc32/v1.30/bin/../lib/gcc/pic32mx/4.5.2/../../../../pic32mx/lib\libmchp_peripheral_32MX795F512L.a(I2CGetStatus.o)
 .debug_abbrev  0x00005dec       0x25 d:/program files (x86)/microchip/xc32/v1.30/bin/../lib/gcc/pic32mx/4.5.2/../../../../pic32mx/lib\libmchp_peripheral_32MX795F512L.a(I2CReceivedDataIsAvailable.o)
 .debug_abbrev  0x00005e11       0x25 d:/program files (x86)/microchip/xc32/v1.30/bin/../lib/gcc/pic32mx/4.5.2/../../../../pic32mx/lib\libmchp_peripheral_32MX795F512L.a(I2CReceiverEnable.o)
 .debug_abbrev  0x00005e36       0x25 d:/program files (x86)/microchip/xc32/v1.30/bin/../lib/gcc/pic32mx/4.5.2/../../../../pic32mx/lib\libmchp_peripheral_32MX795F512L.a(I2CRepeatStart.o)
 .debug_abbrev  0x00005e5b       0x25 d:/program files (x86)/microchip/xc32/v1.30/bin/../lib/gcc/pic32mx/4.5.2/../../../../pic32mx/lib\libmchp_peripheral_32MX795F512L.a(I2CSendByte.o)
 .debug_abbrev  0x00005e80       0x25 d:/program files (x86)/microchip/xc32/v1.30/bin/../lib/gcc/pic32mx/4.5.2/../../../../pic32mx/lib\libmchp_peripheral_32MX795F512L.a(I2CSetFrequency.o)
 .debug_abbrev  0x00005ea5       0x25 d:/program files (x86)/microchip/xc32/v1.30/bin/../lib/gcc/pic32mx/4.5.2/../../../../pic32mx/lib\libmchp_peripheral_32MX795F512L.a(I2CSetSlaveAddress.o)
 .debug_abbrev  0x00005eca       0x25 d:/program files (x86)/microchip/xc32/v1.30/bin/../lib/gcc/pic32mx/4.5.2/../../../../pic32mx/lib\libmchp_peripheral_32MX795F512L.a(I2CStart.o)
 .debug_abbrev  0x00005eef       0x25 d:/program files (x86)/microchip/xc32/v1.30/bin/../lib/gcc/pic32mx/4.5.2/../../../../pic32mx/lib\libmchp_peripheral_32MX795F512L.a(I2CStop.o)
 .debug_abbrev  0x00005f14       0x25 d:/program files (x86)/microchip/xc32/v1.30/bin/../lib/gcc/pic32mx/4.5.2/../../../../pic32mx/lib\libmchp_peripheral_32MX795F512L.a(I2CTransmissionHasCompleted.o)
 .debug_abbrev  0x00005f39       0x25 d:/program files (x86)/microchip/xc32/v1.30/bin/../lib/gcc/pic32mx/4.5.2/../../../../pic32mx/lib\libmchp_peripheral_32MX795F512L.a(I2CTransmitterIsReady.o)
 .debug_abbrev  0x00005f5e        0x1 d:/program files (x86)/microchip/xc32/v1.30/bin/../lib/gcc/pic32mx/4.5.2/../../../../pic32mx/lib\libmchp_peripheral_32MX795F512L.a(I2CPrivate.o)
 .debug_abbrev  0x00005f5f       0x61 d:/program files (x86)/microchip/xc32/v1.30/bin/../lib/gcc/pic32mx/4.5.2\libgcc.a(floatunsisf.o)
 .debug_abbrev  0x00005fc0       0x23 d:/program files (x86)/microchip/xc32/v1.30/bin/../lib/gcc/pic32mx/4.5.2/../../../../pic32mx/lib\libpic32.a(default-bootstrap-exception-handler.o)
 .debug_abbrev  0x00005fe3       0x23 d:/program files (x86)/microchip/xc32/v1.30/bin/../lib/gcc/pic32mx/4.5.2/../../../../pic32mx/lib\libpic32.a(default-on-reset.o)
 .debug_abbrev  0x00006006       0x23 d:/program files (x86)/microchip/xc32/v1.30/bin/../lib/gcc/pic32mx/4.5.2/../../../../pic32mx/lib\libpic32.a(default-on-bootstrap.o)
 .debug_abbrev  0x00006029       0x23 d:/program files (x86)/microchip/xc32/v1.30/bin/../lib/gcc/pic32mx/4.5.2/../../../../pic32mx/lib\libpic32.a(default-general-exception-handler.o)
 .debug_abbrev  0x0000604c       0x23 d:/program files (x86)/microchip/xc32/v1.30/bin/../lib/gcc/pic32mx/4.5.2/../../../../pic32mx/lib\libc.a(atoi.o)
 .debug_abbrev  0x0000606f       0x23 d:/program files (x86)/microchip/xc32/v1.30/bin/../lib/gcc/pic32mx/4.5.2/../../../../pic32mx/lib\libc.a(cldiv.o)
 .debug_abbrev  0x00006092        0x1 d:/program files (x86)/microchip/xc32/v1.30/bin/../lib/gcc/pic32mx/4.5.2/../../../../pic32mx/lib\libc.a(ctype.o)
 .debug_abbrev  0x00006093       0x23 d:/program files (x86)/microchip/xc32/v1.30/bin/../lib/gcc/pic32mx/4.5.2/../../../../pic32mx/lib\libc.a(itoa.o)
 .debug_abbrev  0x000060b6       0x23 d:/program files (x86)/microchip/xc32/v1.30/bin/../lib/gcc/pic32mx/4.5.2/../../../../pic32mx/lib\libc.a(strchr.o)
 .debug_abbrev  0x000060d9       0x23 d:/program files (x86)/microchip/xc32/v1.30/bin/../lib/gcc/pic32mx/4.5.2/../../../../pic32mx/lib\libc.a(strstr.o)
 .debug_abbrev  0x000060fc       0x23 d:/program files (x86)/microchip/xc32/v1.30/bin/../lib/gcc/pic32mx/4.5.2/../../../../pic32mx/lib\libc.a(strtol.o)
 .debug_abbrev  0x0000611f       0x23 d:/program files (x86)/microchip/xc32/v1.30/bin/../lib/gcc/pic32mx/4.5.2/../../../../pic32mx/lib\libc.a(atof.o)
 .debug_abbrev  0x00006142       0x23 d:/program files (x86)/microchip/xc32/v1.30/bin/../lib/gcc/pic32mx/4.5.2/../../../../pic32mx/lib\libc.a(sprintf_cdfFnopuxX.eo)
 .debug_abbrev  0x00006165       0x23 d:/program files (x86)/microchip/xc32/v1.30/bin/../lib/gcc/pic32mx/4.5.2/../../../../pic32mx/lib\libc.a(vsprintf.o)
 .debug_abbrev  0x00006188       0x23 d:/program files (x86)/microchip/xc32/v1.30/bin/../lib/gcc/pic32mx/4.5.2/../../../../pic32mx/lib\libc.a(ctypef.o)
 .debug_abbrev  0x000061ab        0x1 d:/program files (x86)/microchip/xc32/v1.30/bin/../lib/gcc/pic32mx/4.5.2/../../../../pic32mx/lib\libc.a(errno.o)
 .debug_abbrev  0x000061ac       0x23 d:/program files (x86)/microchip/xc32/v1.30/bin/../lib/gcc/pic32mx/4.5.2/../../../../pic32mx/lib\libc.a(strncmp.o)
 .debug_abbrev  0x000061cf       0x47 d:/program files (x86)/microchip/xc32/v1.30/bin/../lib/gcc/pic32mx/4.5.2/../../../../pic32mx/lib\libc.a(strtof.o)
 .debug_abbrev  0x00006216       0x41 d:/program files (x86)/microchip/xc32/v1.30/bin/../lib/gcc/pic32mx/4.5.2/../../../../pic32mx/lib\libc.a(doprnt_cdfFnopuxX.eo)
 .debug_abbrev  0x00006257       0x34 d:/program files (x86)/microchip/xc32/v1.30/bin/../lib/gcc/pic32mx/4.5.2/../../../../pic32mx/lib\libc.a(doprnt.o)
 .debug_abbrev  0x0000628b       0x23 d:/program files (x86)/microchip/xc32/v1.30/bin/../lib/gcc/pic32mx/4.5.2/../../../../pic32mx/lib\libc.a(_fputc_simple.o)
 .debug_abbrev  0x000062ae        0x1 d:/program files (x86)/microchip/xc32/v1.30/bin/../lib/gcc/pic32mx/4.5.2/../../../../pic32mx/lib\libc.a(powersf.o)
 .debug_abbrev  0x000062af        0x1 d:/program files (x86)/microchip/xc32/v1.30/bin/../lib/gcc/pic32mx/4.5.2/../../../../pic32mx/lib\libc.a(_iob.o)
 .debug_abbrev  0x000062b0       0x23 d:/program files (x86)/microchip/xc32/v1.30/bin/../lib/gcc/pic32mx/4.5.2/../../../../pic32mx/lib\libc.a(_flsbuf_simple.o)
 .debug_abbrev  0x000062d3       0x23 d:/program files (x86)/microchip/xc32/v1.30/bin/../lib/gcc/pic32mx/4.5.2/../../../../pic32mx/lib\libpic32.a(write.o)
 .debug_abbrev  0x000062f6       0x23 d:/program files (x86)/microchip/xc32/v1.30/bin/../lib/gcc/pic32mx/4.5.2/../../../../pic32mx/lib\libpic32.a(_mon_putc.o)
 .debug_abbrev  0x00006319        0x1 d:/program files (x86)/microchip/xc32/v1.30/bin/../lib/gcc/pic32mx/4.5.2/../../../../pic32mx/lib\libpic32.a(xc32_uart.o)
 .debug_abbrev  0x0000631a       0x30 d:/program files (x86)/microchip/xc32/v1.30/bin/../lib/gcc/pic32mx/4.5.2/../../../../pic32mx/lib\libe.a(_floatdisf.o)
 .debug_abbrev  0x0000634a       0x30 d:/program files (x86)/microchip/xc32/v1.30/bin/../lib/gcc/pic32mx/4.5.2/../../../../pic32mx/lib\libe.a(_strtof.o)
 .debug_abbrev  0x0000637a       0x30 d:/program files (x86)/microchip/xc32/v1.30/bin/../lib/gcc/pic32mx/4.5.2/../../../../pic32mx/lib\libe.a(_ldexpf.o)
 .debug_abbrev  0x000063aa       0x79 d:/program files (x86)/microchip/xc32/v1.30/bin/../lib/gcc/pic32mx/4.5.2\libgcc.a(_floatundisf.o)
 .debug_abbrev  0x00006423      0x132 d:/program files (x86)/microchip/xc32/v1.30/bin/../lib/gcc/pic32mx/4.5.2\libgcc.a(_udivdi3.o)
 .debug_abbrev  0x00006555      0x148 d:/program files (x86)/microchip/xc32/v1.30/bin/../lib/gcc/pic32mx/4.5.2\libgcc.a(_umoddi3.o)

.debug_line     0x00000000     0xcebc
 *(.debug_line)
 .debug_line    0x00000000      0x345 build/default/production/_ext/1246622842/24lcxxx.o
 .debug_line    0x00000345      0x21c build/default/production/_ext/1246622842/25vfxxx.o
 .debug_line    0x00000561      0x2aa build/default/production/_ext/1246622842/buzzer.o
 .debug_line    0x0000080b      0x364 build/default/production/_ext/1246622842/clock.o
 .debug_line    0x00000b6f     0x12fc build/default/production/_ext/1246622842/company.o
 .debug_line    0x00001e6b      0x37b build/default/production/_ext/1246622842/des.o
 .debug_line    0x000021e6      0x435 build/default/production/_ext/1246622842/disp.o
 .debug_line    0x0000261b      0xbe1 build/default/production/_ext/1246622842/ic_card.o
 .debug_line    0x000031fc      0x347 build/default/production/_ext/1246622842/iic.o
 .debug_line    0x00003543      0x57f build/default/production/_ext/1218090624/init.o
 .debug_line    0x00003ac2      0x53a build/default/production/_ext/1218090624/kernel.o
 .debug_line    0x00003ffc      0x6ba build/default/production/_ext/1246622842/key.o
 .debug_line    0x000046b6      0x364 build/default/production/_ext/1246622842/lcd.o
 .debug_line    0x00004a1a     0x1277 build/default/production/_ext/1246622842/lngctrl.o
 .debug_line    0x00005c91      0x46d build/default/production/_ext/1246622842/lngdebug.o
 .debug_line    0x000060fe      0x330 build/default/production/_ext/1218090624/main.o
 .debug_line    0x0000642e      0x480 build/default/production/_ext/1218090624/main_ui.o
 .debug_line    0x000068ae      0x6f7 build/default/production/_ext/1218090624/module_test.o
 .debug_line    0x00006fa5      0x414 build/default/production/_ext/1246622842/nand.o
 .debug_line    0x000073b9      0x2e4 build/default/production/_ext/1246622842/print.o
 .debug_line    0x0000769d      0x706 build/default/production/_ext/1246622842/qry.o
 .debug_line    0x00007da3      0x535 build/default/production/_ext/1218090624/sign.o
 .debug_line    0x000082d8      0x683 build/default/production/_ext/1246622842/soe.o
 .debug_line    0x0000895b      0x2c1 build/default/production/_ext/1218090624/store.o
 .debug_line    0x00008c1c     0x170f build/default/production/_ext/1218090624/sysset.o
 .debug_line    0x0000a32b      0x30c build/default/production/_ext/1246622842/TempDetection.o
 .debug_line    0x0000a637      0x343 build/default/production/_ext/1246622842/uart.o
 .debug_line    0x0000a97a      0x444 build/default/production/_ext/1246622842/gas_log.o
 .debug_line    0x0000adbe      0x455 build/default/production/_ext/1246622842/gas_log_sp.o
 .debug_line    0x0000b213       0x6e d:/program files (x86)/microchip/xc32/v1.30/bin/../lib/gcc/pic32mx/4.5.2/../../../../pic32mx/lib\libmchp_peripheral.a(open_core_timer_lib.o)
 .debug_line    0x0000b281       0x70 d:/program files (x86)/microchip/xc32/v1.30/bin/../lib/gcc/pic32mx/4.5.2/../../../../pic32mx/lib\libmchp_peripheral.a(update_core_timer_lib.o)
 .debug_line    0x0000b2f1       0x62 d:/program files (x86)/microchip/xc32/v1.30/bin/../lib/gcc/pic32mx/4.5.2/../../../../pic32mx/lib\libmchp_peripheral_32MX795F512L.a(pcache.o)
 .debug_line    0x0000b353       0x71 d:/program files (x86)/microchip/xc32/v1.30/bin/../lib/gcc/pic32mx/4.5.2/../../../../pic32mx/lib\libmchp_peripheral_32MX795F512L.a(int_configure_system_lib.o)
 .debug_line    0x0000b3c4       0x72 d:/program files (x86)/microchip/xc32/v1.30/bin/../lib/gcc/pic32mx/4.5.2/../../../../pic32mx/lib\libmchp_peripheral_32MX795F512L.a(int_enable_interrupts_lib.o)
 .debug_line    0x0000b436       0x73 d:/program files (x86)/microchip/xc32/v1.30/bin/../lib/gcc/pic32mx/4.5.2/../../../../pic32mx/lib\libmchp_peripheral_32MX795F512L.a(int_disable_interrupts_lib.o)
 .debug_line    0x0000b4a9       0x73 d:/program files (x86)/microchip/xc32/v1.30/bin/../lib/gcc/pic32mx/4.5.2/../../../../pic32mx/lib\libmchp_peripheral_32MX795F512L.a(int_restore_interrupts_lib.o)
 .debug_line    0x0000b51c       0x64 d:/program files (x86)/microchip/xc32/v1.30/bin/../lib/gcc/pic32mx/4.5.2/../../../../pic32mx/lib\libmchp_peripheral_32MX795F512L.a(int_tbl_lib.o)
 .debug_line    0x0000b580       0x77 d:/program files (x86)/microchip/xc32/v1.30/bin/../lib/gcc/pic32mx/4.5.2/../../../../pic32mx/lib\libmchp_peripheral_32MX795F512L.a(port_set_pins_digital_in_lib.o)
 .debug_line    0x0000b5f7       0x78 d:/program files (x86)/microchip/xc32/v1.30/bin/../lib/gcc/pic32mx/4.5.2/../../../../pic32mx/lib\libmchp_peripheral_32MX795F512L.a(port_set_pins_digital_out_lib.o)
 .debug_line    0x0000b66f        0x0 d:/program files (x86)/microchip/xc32/v1.30/bin/../lib/gcc/pic32mx/4.5.2/../../../../pic32mx/lib\libmchp_peripheral_32MX795F512L.a(_ports_tbl_libp.o)
 .debug_line    0x0000b66f       0x62 d:/program files (x86)/microchip/xc32/v1.30/bin/../lib/gcc/pic32mx/4.5.2/../../../../pic32mx/lib\libmchp_peripheral_32MX795F512L.a(uart_lib.o)
 .debug_line    0x0000b6d1       0x6d d:/program files (x86)/microchip/xc32/v1.30/bin/../lib/gcc/pic32mx/4.5.2/../../../../pic32mx/lib\libmchp_peripheral_32MX795F512L.a(idle_i2c2_lib_legacy.o)
 .debug_line    0x0000b73e       0x74 d:/program files (x86)/microchip/xc32/v1.30/bin/../lib/gcc/pic32mx/4.5.2/../../../../pic32mx/lib\libmchp_peripheral_32MX795F512L.a(master_read_i2c2_lib_legacy.o)
 .debug_line    0x0000b7b2       0x75 d:/program files (x86)/microchip/xc32/v1.30/bin/../lib/gcc/pic32mx/4.5.2/../../../../pic32mx/lib\libmchp_peripheral_32MX795F512L.a(master_write_i2c2_lib_legacy.o)
 .debug_line    0x0000b827       0x65 d:/program files (x86)/microchip/xc32/v1.30/bin/../lib/gcc/pic32mx/4.5.2/../../../../pic32mx/lib\libmchp_peripheral_32MX795F512L.a(I2CBusIsIdle.o)
 .debug_line    0x0000b88c       0x6f d:/program files (x86)/microchip/xc32/v1.30/bin/../lib/gcc/pic32mx/4.5.2/../../../../pic32mx/lib\libmchp_peripheral_32MX795F512L.a(I2CByteWasAcknowledged.o)
 .debug_line    0x0000b8fb       0x65 d:/program files (x86)/microchip/xc32/v1.30/bin/../lib/gcc/pic32mx/4.5.2/../../../../pic32mx/lib\libmchp_peripheral_32MX795F512L.a(I2CConfigure.o)
 .debug_line    0x0000b960       0x62 d:/program files (x86)/microchip/xc32/v1.30/bin/../lib/gcc/pic32mx/4.5.2/../../../../pic32mx/lib\libmchp_peripheral_32MX795F512L.a(I2CEnable.o)
 .debug_line    0x0000b9c2       0x63 d:/program files (x86)/microchip/xc32/v1.30/bin/../lib/gcc/pic32mx/4.5.2/../../../../pic32mx/lib\libmchp_peripheral_32MX795F512L.a(I2CGetByte.o)
 .debug_line    0x0000ba25       0x65 d:/program files (x86)/microchip/xc32/v1.30/bin/../lib/gcc/pic32mx/4.5.2/../../../../pic32mx/lib\libmchp_peripheral_32MX795F512L.a(I2CGetStatus.o)
 .debug_line    0x0000ba8a       0x73 d:/program files (x86)/microchip/xc32/v1.30/bin/../lib/gcc/pic32mx/4.5.2/../../../../pic32mx/lib\libmchp_peripheral_32MX795F512L.a(I2CReceivedDataIsAvailable.o)
 .debug_line    0x0000bafd       0x6a d:/program files (x86)/microchip/xc32/v1.30/bin/../lib/gcc/pic32mx/4.5.2/../../../../pic32mx/lib\libmchp_peripheral_32MX795F512L.a(I2CReceiverEnable.o)
 .debug_line    0x0000bb67       0x67 d:/program files (x86)/microchip/xc32/v1.30/bin/../lib/gcc/pic32mx/4.5.2/../../../../pic32mx/lib\libmchp_peripheral_32MX795F512L.a(I2CRepeatStart.o)
 .debug_line    0x0000bbce       0x64 d:/program files (x86)/microchip/xc32/v1.30/bin/../lib/gcc/pic32mx/4.5.2/../../../../pic32mx/lib\libmchp_peripheral_32MX795F512L.a(I2CSendByte.o)
 .debug_line    0x0000bc32       0x68 d:/program files (x86)/microchip/xc32/v1.30/bin/../lib/gcc/pic32mx/4.5.2/../../../../pic32mx/lib\libmchp_peripheral_32MX795F512L.a(I2CSetFrequency.o)
 .debug_line    0x0000bc9a       0x6b d:/program files (x86)/microchip/xc32/v1.30/bin/../lib/gcc/pic32mx/4.5.2/../../../../pic32mx/lib\libmchp_peripheral_32MX795F512L.a(I2CSetSlaveAddress.o)
 .debug_line    0x0000bd05       0x61 d:/program files (x86)/microchip/xc32/v1.30/bin/../lib/gcc/pic32mx/4.5.2/../../../../pic32mx/lib\libmchp_peripheral_32MX795F512L.a(I2CStart.o)
 .debug_line    0x0000bd66       0x60 d:/program files (x86)/microchip/xc32/v1.30/bin/../lib/gcc/pic32mx/4.5.2/../../../../pic32mx/lib\libmchp_peripheral_32MX795F512L.a(I2CStop.o)
 .debug_line    0x0000bdc6       0x74 d:/program files (x86)/microchip/xc32/v1.30/bin/../lib/gcc/pic32mx/4.5.2/../../../../pic32mx/lib\libmchp_peripheral_32MX795F512L.a(I2CTransmissionHasCompleted.o)
 .debug_line    0x0000be3a       0x6e d:/program files (x86)/microchip/xc32/v1.30/bin/../lib/gcc/pic32mx/4.5.2/../../../../pic32mx/lib\libmchp_peripheral_32MX795F512L.a(I2CTransmitterIsReady.o)
 .debug_line    0x0000bea8        0x0 d:/program files (x86)/microchip/xc32/v1.30/bin/../lib/gcc/pic32mx/4.5.2/../../../../pic32mx/lib\libmchp_peripheral_32MX795F512L.a(I2CPrivate.o)
 .debug_line    0x0000bea8       0x8e d:/program files (x86)/microchip/xc32/v1.30/bin/../lib/gcc/pic32mx/4.5.2\libgcc.a(floatunsisf.o)
 .debug_line    0x0000bf36       0x97 d:/program files (x86)/microchip/xc32/v1.30/bin/../lib/gcc/pic32mx/4.5.2/../../../../pic32mx/lib\libpic32.a(default-bootstrap-exception-handler.o)
 .debug_line    0x0000bfcd       0x84 d:/program files (x86)/microchip/xc32/v1.30/bin/../lib/gcc/pic32mx/4.5.2/../../../../pic32mx/lib\libpic32.a(default-on-reset.o)
 .debug_line    0x0000c051       0x88 d:/program files (x86)/microchip/xc32/v1.30/bin/../lib/gcc/pic32mx/4.5.2/../../../../pic32mx/lib\libpic32.a(default-on-bootstrap.o)
 .debug_line    0x0000c0d9       0x95 d:/program files (x86)/microchip/xc32/v1.30/bin/../lib/gcc/pic32mx/4.5.2/../../../../pic32mx/lib\libpic32.a(default-general-exception-handler.o)
 .debug_line    0x0000c16e       0x6e d:/program files (x86)/microchip/xc32/v1.30/bin/../lib/gcc/pic32mx/4.5.2/../../../../pic32mx/lib\libc.a(atoi.o)
 .debug_line    0x0000c1dc       0x6f d:/program files (x86)/microchip/xc32/v1.30/bin/../lib/gcc/pic32mx/4.5.2/../../../../pic32mx/lib\libc.a(cldiv.o)
 .debug_line    0x0000c24b        0x0 d:/program files (x86)/microchip/xc32/v1.30/bin/../lib/gcc/pic32mx/4.5.2/../../../../pic32mx/lib\libc.a(ctype.o)
 .debug_line    0x0000c24b       0x6e d:/program files (x86)/microchip/xc32/v1.30/bin/../lib/gcc/pic32mx/4.5.2/../../../../pic32mx/lib\libc.a(itoa.o)
 .debug_line    0x0000c2b9       0x70 d:/program files (x86)/microchip/xc32/v1.30/bin/../lib/gcc/pic32mx/4.5.2/../../../../pic32mx/lib\libc.a(strchr.o)
 .debug_line    0x0000c329       0x70 d:/program files (x86)/microchip/xc32/v1.30/bin/../lib/gcc/pic32mx/4.5.2/../../../../pic32mx/lib\libc.a(strstr.o)
 .debug_line    0x0000c399       0x70 d:/program files (x86)/microchip/xc32/v1.30/bin/../lib/gcc/pic32mx/4.5.2/../../../../pic32mx/lib\libc.a(strtol.o)
 .debug_line    0x0000c409       0x6e d:/program files (x86)/microchip/xc32/v1.30/bin/../lib/gcc/pic32mx/4.5.2/../../../../pic32mx/lib\libc.a(atof.o)
 .debug_line    0x0000c477       0x71 d:/program files (x86)/microchip/xc32/v1.30/bin/../lib/gcc/pic32mx/4.5.2/../../../../pic32mx/lib\libc.a(sprintf_cdfFnopuxX.eo)
 .debug_line    0x0000c4e8       0x72 d:/program files (x86)/microchip/xc32/v1.30/bin/../lib/gcc/pic32mx/4.5.2/../../../../pic32mx/lib\libc.a(vsprintf.o)
 .debug_line    0x0000c55a       0x70 d:/program files (x86)/microchip/xc32/v1.30/bin/../lib/gcc/pic32mx/4.5.2/../../../../pic32mx/lib\libc.a(ctypef.o)
 .debug_line    0x0000c5ca        0x0 d:/program files (x86)/microchip/xc32/v1.30/bin/../lib/gcc/pic32mx/4.5.2/../../../../pic32mx/lib\libc.a(errno.o)
 .debug_line    0x0000c5ca       0x71 d:/program files (x86)/microchip/xc32/v1.30/bin/../lib/gcc/pic32mx/4.5.2/../../../../pic32mx/lib\libc.a(strncmp.o)
 .debug_line    0x0000c63b       0x70 d:/program files (x86)/microchip/xc32/v1.30/bin/../lib/gcc/pic32mx/4.5.2/../../../../pic32mx/lib\libc.a(strtof.o)
 .debug_line    0x0000c6ab       0x70 d:/program files (x86)/microchip/xc32/v1.30/bin/../lib/gcc/pic32mx/4.5.2/../../../../pic32mx/lib\libc.a(doprnt_cdfFnopuxX.eo)
 .debug_line    0x0000c71b       0x70 d:/program files (x86)/microchip/xc32/v1.30/bin/../lib/gcc/pic32mx/4.5.2/../../../../pic32mx/lib\libc.a(doprnt.o)
 .debug_line    0x0000c78b       0x6f d:/program files (x86)/microchip/xc32/v1.30/bin/../lib/gcc/pic32mx/4.5.2/../../../../pic32mx/lib\libc.a(_fputc_simple.o)
 .debug_line    0x0000c7fa        0x0 d:/program files (x86)/microchip/xc32/v1.30/bin/../lib/gcc/pic32mx/4.5.2/../../../../pic32mx/lib\libc.a(powersf.o)
 .debug_line    0x0000c7fa        0x0 d:/program files (x86)/microchip/xc32/v1.30/bin/../lib/gcc/pic32mx/4.5.2/../../../../pic32mx/lib\libc.a(_iob.o)
 .debug_line    0x0000c7fa       0x70 d:/program files (x86)/microchip/xc32/v1.30/bin/../lib/gcc/pic32mx/4.5.2/../../../../pic32mx/lib\libc.a(_flsbuf_simple.o)
 .debug_line    0x0000c86a       0x79 d:/program files (x86)/microchip/xc32/v1.30/bin/../lib/gcc/pic32mx/4.5.2/../../../../pic32mx/lib\libpic32.a(write.o)
 .debug_line    0x0000c8e3       0x7d d:/program files (x86)/microchip/xc32/v1.30/bin/../lib/gcc/pic32mx/4.5.2/../../../../pic32mx/lib\libpic32.a(_mon_putc.o)
 .debug_line    0x0000c960        0x0 d:/program files (x86)/microchip/xc32/v1.30/bin/../lib/gcc/pic32mx/4.5.2/../../../../pic32mx/lib\libpic32.a(xc32_uart.o)
 .debug_line    0x0000c960       0x93 d:/program files (x86)/microchip/xc32/v1.30/bin/../lib/gcc/pic32mx/4.5.2/../../../../pic32mx/lib\libe.a(_floatdisf.o)
 .debug_line    0x0000c9f3       0x80 d:/program files (x86)/microchip/xc32/v1.30/bin/../lib/gcc/pic32mx/4.5.2/../../../../pic32mx/lib\libe.a(_strtof.o)
 .debug_line    0x0000ca73       0x93 d:/program files (x86)/microchip/xc32/v1.30/bin/../lib/gcc/pic32mx/4.5.2/../../../../pic32mx/lib\libe.a(_ldexpf.o)
 .debug_line    0x0000cb06      0x105 d:/program files (x86)/microchip/xc32/v1.30/bin/../lib/gcc/pic32mx/4.5.2\libgcc.a(_floatundisf.o)
 .debug_line    0x0000cc0b      0x158 d:/program files (x86)/microchip/xc32/v1.30/bin/../lib/gcc/pic32mx/4.5.2\libgcc.a(_udivdi3.o)
 .debug_line    0x0000cd63      0x159 d:/program files (x86)/microchip/xc32/v1.30/bin/../lib/gcc/pic32mx/4.5.2\libgcc.a(_umoddi3.o)

.debug_frame    0x00000000     0x53c4
 *(.debug_frame)
 .debug_frame   0x00000000       0xf0 build/default/production/_ext/1246622842/24lcxxx.o
 .debug_frame   0x000000f0       0x9c build/default/production/_ext/1246622842/buzzer.o
 .debug_frame   0x0000018c      0x12c build/default/production/_ext/1246622842/clock.o
 .debug_frame   0x000002b8      0xbbc build/default/production/_ext/1246622842/company.o
 .debug_frame   0x00000e74      0x10c build/default/production/_ext/1246622842/des.o
 .debug_frame   0x00000f80      0x1ec build/default/production/_ext/1246622842/disp.o
 .debug_frame   0x0000116c      0x634 build/default/production/_ext/1246622842/ic_card.o
 .debug_frame   0x000017a0       0xd4 build/default/production/_ext/1246622842/iic.o
 .debug_frame   0x00001874      0x278 build/default/production/_ext/1218090624/init.o
 .debug_frame   0x00001aec      0x12c build/default/production/_ext/1218090624/kernel.o
 .debug_frame   0x00001c18      0x1d8 build/default/production/_ext/1246622842/key.o
 .debug_frame   0x00001df0      0x170 build/default/production/_ext/1246622842/lcd.o
 .debug_frame   0x00001f60      0x3b8 build/default/production/_ext/1246622842/lngctrl.o
 .debug_frame   0x00002318      0x174 build/default/production/_ext/1246622842/lngdebug.o
 .debug_frame   0x0000248c       0xf8 build/default/production/_ext/1218090624/main.o
 .debug_frame   0x00002584      0x180 build/default/production/_ext/1218090624/main_ui.o
 .debug_frame   0x00002704      0x374 build/default/production/_ext/1218090624/module_test.o
 .debug_frame   0x00002a78      0x278 build/default/production/_ext/1246622842/nand.o
 .debug_frame   0x00002cf0       0xbc build/default/production/_ext/1246622842/print.o
 .debug_frame   0x00002dac      0x440 build/default/production/_ext/1246622842/qry.o
 .debug_frame   0x000031ec      0x20c build/default/production/_ext/1218090624/sign.o
 .debug_frame   0x000033f8      0x228 build/default/production/_ext/1246622842/soe.o
 .debug_frame   0x00003620       0xf0 build/default/production/_ext/1218090624/store.o
 .debug_frame   0x00003710      0xd1c build/default/production/_ext/1218090624/sysset.o
 .debug_frame   0x0000442c      0x10c build/default/production/_ext/1246622842/TempDetection.o
 .debug_frame   0x00004538       0xa8 build/default/production/_ext/1246622842/uart.o
 .debug_frame   0x000045e0      0x198 build/default/production/_ext/1246622842/gas_log.o
 .debug_frame   0x00004778      0x160 build/default/production/_ext/1246622842/gas_log_sp.o
 .debug_frame   0x000048d8       0x20 d:/program files (x86)/microchip/xc32/v1.30/bin/../lib/gcc/pic32mx/4.5.2/../../../../pic32mx/lib\libmchp_peripheral.a(open_core_timer_lib.o)
 .debug_frame   0x000048f8       0x20 d:/program files (x86)/microchip/xc32/v1.30/bin/../lib/gcc/pic32mx/4.5.2/../../../../pic32mx/lib\libmchp_peripheral.a(update_core_timer_lib.o)
 .debug_frame   0x00004918       0x30 d:/program files (x86)/microchip/xc32/v1.30/bin/../lib/gcc/pic32mx/4.5.2/../../../../pic32mx/lib\libmchp_peripheral_32MX795F512L.a(pcache.o)
 .debug_frame   0x00004948       0x20 d:/program files (x86)/microchip/xc32/v1.30/bin/../lib/gcc/pic32mx/4.5.2/../../../../pic32mx/lib\libmchp_peripheral_32MX795F512L.a(int_configure_system_lib.o)
 .debug_frame   0x00004968       0x20 d:/program files (x86)/microchip/xc32/v1.30/bin/../lib/gcc/pic32mx/4.5.2/../../../../pic32mx/lib\libmchp_peripheral_32MX795F512L.a(int_enable_interrupts_lib.o)
 .debug_frame   0x00004988       0x20 d:/program files (x86)/microchip/xc32/v1.30/bin/../lib/gcc/pic32mx/4.5.2/../../../../pic32mx/lib\libmchp_peripheral_32MX795F512L.a(int_disable_interrupts_lib.o)
 .debug_frame   0x000049a8       0x20 d:/program files (x86)/microchip/xc32/v1.30/bin/../lib/gcc/pic32mx/4.5.2/../../../../pic32mx/lib\libmchp_peripheral_32MX795F512L.a(int_restore_interrupts_lib.o)
 .debug_frame   0x000049c8       0xa0 d:/program files (x86)/microchip/xc32/v1.30/bin/../lib/gcc/pic32mx/4.5.2/../../../../pic32mx/lib\libmchp_peripheral_32MX795F512L.a(int_tbl_lib.o)
 .debug_frame   0x00004a68       0x20 d:/program files (x86)/microchip/xc32/v1.30/bin/../lib/gcc/pic32mx/4.5.2/../../../../pic32mx/lib\libmchp_peripheral_32MX795F512L.a(port_set_pins_digital_in_lib.o)
 .debug_frame   0x00004a88       0x20 d:/program files (x86)/microchip/xc32/v1.30/bin/../lib/gcc/pic32mx/4.5.2/../../../../pic32mx/lib\libmchp_peripheral_32MX795F512L.a(port_set_pins_digital_out_lib.o)
 .debug_frame   0x00004aa8       0x90 d:/program files (x86)/microchip/xc32/v1.30/bin/../lib/gcc/pic32mx/4.5.2/../../../../pic32mx/lib\libmchp_peripheral_32MX795F512L.a(uart_lib.o)
 .debug_frame   0x00004b38       0x20 d:/program files (x86)/microchip/xc32/v1.30/bin/../lib/gcc/pic32mx/4.5.2/../../../../pic32mx/lib\libmchp_peripheral_32MX795F512L.a(idle_i2c2_lib_legacy.o)
 .debug_frame   0x00004b58       0x20 d:/program files (x86)/microchip/xc32/v1.30/bin/../lib/gcc/pic32mx/4.5.2/../../../../pic32mx/lib\libmchp_peripheral_32MX795F512L.a(master_read_i2c2_lib_legacy.o)
 .debug_frame   0x00004b78       0x28 d:/program files (x86)/microchip/xc32/v1.30/bin/../lib/gcc/pic32mx/4.5.2/../../../../pic32mx/lib\libmchp_peripheral_32MX795F512L.a(master_write_i2c2_lib_legacy.o)
 .debug_frame   0x00004ba0       0x20 d:/program files (x86)/microchip/xc32/v1.30/bin/../lib/gcc/pic32mx/4.5.2/../../../../pic32mx/lib\libmchp_peripheral_32MX795F512L.a(I2CBusIsIdle.o)
 .debug_frame   0x00004bc0       0x20 d:/program files (x86)/microchip/xc32/v1.30/bin/../lib/gcc/pic32mx/4.5.2/../../../../pic32mx/lib\libmchp_peripheral_32MX795F512L.a(I2CByteWasAcknowledged.o)
 .debug_frame   0x00004be0       0x20 d:/program files (x86)/microchip/xc32/v1.30/bin/../lib/gcc/pic32mx/4.5.2/../../../../pic32mx/lib\libmchp_peripheral_32MX795F512L.a(I2CConfigure.o)
 .debug_frame   0x00004c00       0x20 d:/program files (x86)/microchip/xc32/v1.30/bin/../lib/gcc/pic32mx/4.5.2/../../../../pic32mx/lib\libmchp_peripheral_32MX795F512L.a(I2CEnable.o)
 .debug_frame   0x00004c20       0x20 d:/program files (x86)/microchip/xc32/v1.30/bin/../lib/gcc/pic32mx/4.5.2/../../../../pic32mx/lib\libmchp_peripheral_32MX795F512L.a(I2CGetByte.o)
 .debug_frame   0x00004c40       0x20 d:/program files (x86)/microchip/xc32/v1.30/bin/../lib/gcc/pic32mx/4.5.2/../../../../pic32mx/lib\libmchp_peripheral_32MX795F512L.a(I2CGetStatus.o)
 .debug_frame   0x00004c60       0x20 d:/program files (x86)/microchip/xc32/v1.30/bin/../lib/gcc/pic32mx/4.5.2/../../../../pic32mx/lib\libmchp_peripheral_32MX795F512L.a(I2CReceivedDataIsAvailable.o)
 .debug_frame   0x00004c80       0x20 d:/program files (x86)/microchip/xc32/v1.30/bin/../lib/gcc/pic32mx/4.5.2/../../../../pic32mx/lib\libmchp_peripheral_32MX795F512L.a(I2CReceiverEnable.o)
 .debug_frame   0x00004ca0       0x20 d:/program files (x86)/microchip/xc32/v1.30/bin/../lib/gcc/pic32mx/4.5.2/../../../../pic32mx/lib\libmchp_peripheral_32MX795F512L.a(I2CRepeatStart.o)
 .debug_frame   0x00004cc0       0x20 d:/program files (x86)/microchip/xc32/v1.30/bin/../lib/gcc/pic32mx/4.5.2/../../../../pic32mx/lib\libmchp_peripheral_32MX795F512L.a(I2CSendByte.o)
 .debug_frame   0x00004ce0       0x20 d:/program files (x86)/microchip/xc32/v1.30/bin/../lib/gcc/pic32mx/4.5.2/../../../../pic32mx/lib\libmchp_peripheral_32MX795F512L.a(I2CSetFrequency.o)
 .debug_frame   0x00004d00       0x20 d:/program files (x86)/microchip/xc32/v1.30/bin/../lib/gcc/pic32mx/4.5.2/../../../../pic32mx/lib\libmchp_peripheral_32MX795F512L.a(I2CSetSlaveAddress.o)
 .debug_frame   0x00004d20       0x20 d:/program files (x86)/microchip/xc32/v1.30/bin/../lib/gcc/pic32mx/4.5.2/../../../../pic32mx/lib\libmchp_peripheral_32MX795F512L.a(I2CStart.o)
 .debug_frame   0x00004d40       0x20 d:/program files (x86)/microchip/xc32/v1.30/bin/../lib/gcc/pic32mx/4.5.2/../../../../pic32mx/lib\libmchp_peripheral_32MX795F512L.a(I2CStop.o)
 .debug_frame   0x00004d60       0x20 d:/program files (x86)/microchip/xc32/v1.30/bin/../lib/gcc/pic32mx/4.5.2/../../../../pic32mx/lib\libmchp_peripheral_32MX795F512L.a(I2CTransmissionHasCompleted.o)
 .debug_frame   0x00004d80       0x20 d:/program files (x86)/microchip/xc32/v1.30/bin/../lib/gcc/pic32mx/4.5.2/../../../../pic32mx/lib\libmchp_peripheral_32MX795F512L.a(I2CTransmitterIsReady.o)
 .debug_frame   0x00004da0       0x28 d:/program files (x86)/microchip/xc32/v1.30/bin/../lib/gcc/pic32mx/4.5.2\libgcc.a(floatunsisf.o)
 .debug_frame   0x00004dc8       0x28 d:/program files (x86)/microchip/xc32/v1.30/bin/../lib/gcc/pic32mx/4.5.2/../../../../pic32mx/lib\libpic32.a(default-bootstrap-exception-handler.o)
 .debug_frame   0x00004df0       0x20 d:/program files (x86)/microchip/xc32/v1.30/bin/../lib/gcc/pic32mx/4.5.2/../../../../pic32mx/lib\libpic32.a(default-on-reset.o)
 .debug_frame   0x00004e10       0x20 d:/program files (x86)/microchip/xc32/v1.30/bin/../lib/gcc/pic32mx/4.5.2/../../../../pic32mx/lib\libpic32.a(default-on-bootstrap.o)
 .debug_frame   0x00004e30       0x28 d:/program files (x86)/microchip/xc32/v1.30/bin/../lib/gcc/pic32mx/4.5.2/../../../../pic32mx/lib\libpic32.a(default-general-exception-handler.o)
 .debug_frame   0x00004e58       0x20 d:/program files (x86)/microchip/xc32/v1.30/bin/../lib/gcc/pic32mx/4.5.2/../../../../pic32mx/lib\libc.a(atoi.o)
 .debug_frame   0x00004e78       0x20 d:/program files (x86)/microchip/xc32/v1.30/bin/../lib/gcc/pic32mx/4.5.2/../../../../pic32mx/lib\libc.a(cldiv.o)
 .debug_frame   0x00004e98       0x38 d:/program files (x86)/microchip/xc32/v1.30/bin/../lib/gcc/pic32mx/4.5.2/../../../../pic32mx/lib\libc.a(itoa.o)
 .debug_frame   0x00004ed0       0x20 d:/program files (x86)/microchip/xc32/v1.30/bin/../lib/gcc/pic32mx/4.5.2/../../../../pic32mx/lib\libc.a(strchr.o)
 .debug_frame   0x00004ef0       0x2c d:/program files (x86)/microchip/xc32/v1.30/bin/../lib/gcc/pic32mx/4.5.2/../../../../pic32mx/lib\libc.a(strstr.o)
 .debug_frame   0x00004f1c       0x5c d:/program files (x86)/microchip/xc32/v1.30/bin/../lib/gcc/pic32mx/4.5.2/../../../../pic32mx/lib\libc.a(strtol.o)
 .debug_frame   0x00004f78       0x28 d:/program files (x86)/microchip/xc32/v1.30/bin/../lib/gcc/pic32mx/4.5.2/../../../../pic32mx/lib\libc.a(atof.o)
 .debug_frame   0x00004fa0       0x2c d:/program files (x86)/microchip/xc32/v1.30/bin/../lib/gcc/pic32mx/4.5.2/../../../../pic32mx/lib\libc.a(sprintf_cdfFnopuxX.eo)
 .debug_frame   0x00004fcc       0x2c d:/program files (x86)/microchip/xc32/v1.30/bin/../lib/gcc/pic32mx/4.5.2/../../../../pic32mx/lib\libc.a(vsprintf.o)
 .debug_frame   0x00004ff8      0x120 d:/program files (x86)/microchip/xc32/v1.30/bin/../lib/gcc/pic32mx/4.5.2/../../../../pic32mx/lib\libc.a(ctypef.o)
 .debug_frame   0x00005118       0x20 d:/program files (x86)/microchip/xc32/v1.30/bin/../lib/gcc/pic32mx/4.5.2/../../../../pic32mx/lib\libc.a(strncmp.o)
 .debug_frame   0x00005138       0x40 d:/program files (x86)/microchip/xc32/v1.30/bin/../lib/gcc/pic32mx/4.5.2/../../../../pic32mx/lib\libc.a(strtof.o)
 .debug_frame   0x00005178       0x58 d:/program files (x86)/microchip/xc32/v1.30/bin/../lib/gcc/pic32mx/4.5.2/../../../../pic32mx/lib\libc.a(doprnt_cdfFnopuxX.eo)
 .debug_frame   0x000051d0       0x74 d:/program files (x86)/microchip/xc32/v1.30/bin/../lib/gcc/pic32mx/4.5.2/../../../../pic32mx/lib\libc.a(doprnt.o)
 .debug_frame   0x00005244       0x2c d:/program files (x86)/microchip/xc32/v1.30/bin/../lib/gcc/pic32mx/4.5.2/../../../../pic32mx/lib\libc.a(_fputc_simple.o)
 .debug_frame   0x00005270       0x28 d:/program files (x86)/microchip/xc32/v1.30/bin/../lib/gcc/pic32mx/4.5.2/../../../../pic32mx/lib\libc.a(_flsbuf_simple.o)
 .debug_frame   0x00005298       0x28 d:/program files (x86)/microchip/xc32/v1.30/bin/../lib/gcc/pic32mx/4.5.2/../../../../pic32mx/lib\libpic32.a(write.o)
 .debug_frame   0x000052c0       0x20 d:/program files (x86)/microchip/xc32/v1.30/bin/../lib/gcc/pic32mx/4.5.2/../../../../pic32mx/lib\libpic32.a(_mon_putc.o)
 .debug_frame   0x000052e0       0x20 d:/program files (x86)/microchip/xc32/v1.30/bin/../lib/gcc/pic32mx/4.5.2/../../../../pic32mx/lib\libe.a(_floatdisf.o)
 .debug_frame   0x00005300       0x38 d:/program files (x86)/microchip/xc32/v1.30/bin/../lib/gcc/pic32mx/4.5.2/../../../../pic32mx/lib\libe.a(_strtof.o)
 .debug_frame   0x00005338       0x20 d:/program files (x86)/microchip/xc32/v1.30/bin/../lib/gcc/pic32mx/4.5.2/../../../../pic32mx/lib\libe.a(_ldexpf.o)
 .debug_frame   0x00005358       0x2c d:/program files (x86)/microchip/xc32/v1.30/bin/../lib/gcc/pic32mx/4.5.2\libgcc.a(_floatundisf.o)
 .debug_frame   0x00005384       0x20 d:/program files (x86)/microchip/xc32/v1.30/bin/../lib/gcc/pic32mx/4.5.2\libgcc.a(_udivdi3.o)
 .debug_frame   0x000053a4       0x20 d:/program files (x86)/microchip/xc32/v1.30/bin/../lib/gcc/pic32mx/4.5.2\libgcc.a(_umoddi3.o)

.debug_str      0x00000000     0x480f
 *(.debug_str)
 .debug_str     0x00000000      0x1b0 build/default/production/_ext/1246622842/24lcxxx.o
 .debug_str     0x000001b0      0x17e build/default/production/_ext/1246622842/25vfxxx.o
 .debug_str     0x0000032e      0x191 build/default/production/_ext/1246622842/buzzer.o
 .debug_str     0x000004bf      0x17e build/default/production/_ext/1246622842/clock.o
 .debug_str     0x0000063d      0x46c build/default/production/_ext/1246622842/company.o
 .debug_str     0x00000aa9      0x203 build/default/production/_ext/1246622842/des.o
 .debug_str     0x00000cac      0x20d build/default/production/_ext/1246622842/disp.o
 .debug_str     0x00000eb9      0x2b0 build/default/production/_ext/1246622842/ic_card.o
 .debug_str     0x00001169      0x1c2 build/default/production/_ext/1246622842/iic.o
 .debug_str     0x0000132b      0x371 build/default/production/_ext/1218090624/init.o
 .debug_str     0x0000169c      0x544 build/default/production/_ext/1218090624/kernel.o
 .debug_str     0x00001be0      0x24e build/default/production/_ext/1246622842/key.o
 .debug_str     0x00001e2e      0x191 build/default/production/_ext/1246622842/lcd.o
 .debug_str     0x00001fbf      0x64b build/default/production/_ext/1246622842/lngctrl.o
 .debug_str     0x0000260a      0x1ef build/default/production/_ext/1246622842/lngdebug.o
 .debug_str     0x000027f9      0x2f8 build/default/production/_ext/1218090624/main.o
 .debug_str     0x00002af1      0x201 build/default/production/_ext/1218090624/main_ui.o
 .debug_str     0x00002cf2      0x222 build/default/production/_ext/1218090624/module_test.o
 .debug_str     0x00002f14      0x1fc build/default/production/_ext/1246622842/nand.o
 .debug_str     0x00003110      0x19d build/default/production/_ext/1246622842/print.o
 .debug_str     0x000032ad      0x3ab build/default/production/_ext/1246622842/qry.o
 .debug_str     0x00003658      0x2be build/default/production/_ext/1218090624/sign.o
 .debug_str     0x00003916      0x1f2 build/default/production/_ext/1246622842/soe.o
 .debug_str     0x00003b08      0x17e build/default/production/_ext/1218090624/store.o
 .debug_str     0x00003c86      0x4d1 build/default/production/_ext/1218090624/sysset.o
 .debug_str     0x00004157      0x190 build/default/production/_ext/1246622842/TempDetection.o
 .debug_str     0x000042e7      0x18a build/default/production/_ext/1246622842/uart.o
 .debug_str     0x00004471      0x1c5 build/default/production/_ext/1246622842/gas_log.o
 .debug_str     0x00004636      0x1d0 build/default/production/_ext/1246622842/gas_log_sp.o
 .debug_str     0x00004806        0x0 d:/program files (x86)/microchip/xc32/v1.30/bin/../lib/gcc/pic32mx/4.5.2/../../../../pic32mx/lib\libmchp_peripheral.a(open_core_timer_lib.o)
 .debug_str     0x00004806        0x0 d:/program files (x86)/microchip/xc32/v1.30/bin/../lib/gcc/pic32mx/4.5.2/../../../../pic32mx/lib\libmchp_peripheral.a(update_core_timer_lib.o)
 .debug_str     0x00004806        0x0 d:/program files (x86)/microchip/xc32/v1.30/bin/../lib/gcc/pic32mx/4.5.2/../../../../pic32mx/lib\libmchp_peripheral_32MX795F512L.a(pcache.o)
 .debug_str     0x00004806        0x0 d:/program files (x86)/microchip/xc32/v1.30/bin/../lib/gcc/pic32mx/4.5.2/../../../../pic32mx/lib\libmchp_peripheral_32MX795F512L.a(int_configure_system_lib.o)
 .debug_str     0x00004806        0x0 d:/program files (x86)/microchip/xc32/v1.30/bin/../lib/gcc/pic32mx/4.5.2/../../../../pic32mx/lib\libmchp_peripheral_32MX795F512L.a(int_enable_interrupts_lib.o)
 .debug_str     0x00004806        0x0 d:/program files (x86)/microchip/xc32/v1.30/bin/../lib/gcc/pic32mx/4.5.2/../../../../pic32mx/lib\libmchp_peripheral_32MX795F512L.a(int_disable_interrupts_lib.o)
 .debug_str     0x00004806        0x0 d:/program files (x86)/microchip/xc32/v1.30/bin/../lib/gcc/pic32mx/4.5.2/../../../../pic32mx/lib\libmchp_peripheral_32MX795F512L.a(int_restore_interrupts_lib.o)
 .debug_str     0x00004806        0x0 d:/program files (x86)/microchip/xc32/v1.30/bin/../lib/gcc/pic32mx/4.5.2/../../../../pic32mx/lib\libmchp_peripheral_32MX795F512L.a(int_tbl_lib.o)
 .debug_str     0x00004806        0x0 d:/program files (x86)/microchip/xc32/v1.30/bin/../lib/gcc/pic32mx/4.5.2/../../../../pic32mx/lib\libmchp_peripheral_32MX795F512L.a(port_set_pins_digital_in_lib.o)
 .debug_str     0x00004806        0x0 d:/program files (x86)/microchip/xc32/v1.30/bin/../lib/gcc/pic32mx/4.5.2/../../../../pic32mx/lib\libmchp_peripheral_32MX795F512L.a(port_set_pins_digital_out_lib.o)
 .debug_str     0x00004806        0x0 d:/program files (x86)/microchip/xc32/v1.30/bin/../lib/gcc/pic32mx/4.5.2/../../../../pic32mx/lib\libmchp_peripheral_32MX795F512L.a(_ports_tbl_libp.o)
 .debug_str     0x00004806        0x0 d:/program files (x86)/microchip/xc32/v1.30/bin/../lib/gcc/pic32mx/4.5.2/../../../../pic32mx/lib\libmchp_peripheral_32MX795F512L.a(uart_lib.o)
 .debug_str     0x00004806        0x0 d:/program files (x86)/microchip/xc32/v1.30/bin/../lib/gcc/pic32mx/4.5.2/../../../../pic32mx/lib\libmchp_peripheral_32MX795F512L.a(idle_i2c2_lib_legacy.o)
 .debug_str     0x00004806        0x0 d:/program files (x86)/microchip/xc32/v1.30/bin/../lib/gcc/pic32mx/4.5.2/../../../../pic32mx/lib\libmchp_peripheral_32MX795F512L.a(master_read_i2c2_lib_legacy.o)
 .debug_str     0x00004806        0x0 d:/program files (x86)/microchip/xc32/v1.30/bin/../lib/gcc/pic32mx/4.5.2/../../../../pic32mx/lib\libmchp_peripheral_32MX795F512L.a(master_write_i2c2_lib_legacy.o)
 .debug_str     0x00004806        0x0 d:/program files (x86)/microchip/xc32/v1.30/bin/../lib/gcc/pic32mx/4.5.2/../../../../pic32mx/lib\libmchp_peripheral_32MX795F512L.a(I2CBusIsIdle.o)
 .debug_str     0x00004806        0x0 d:/program files (x86)/microchip/xc32/v1.30/bin/../lib/gcc/pic32mx/4.5.2/../../../../pic32mx/lib\libmchp_peripheral_32MX795F512L.a(I2CByteWasAcknowledged.o)
 .debug_str     0x00004806        0x0 d:/program files (x86)/microchip/xc32/v1.30/bin/../lib/gcc/pic32mx/4.5.2/../../../../pic32mx/lib\libmchp_peripheral_32MX795F512L.a(I2CConfigure.o)
 .debug_str     0x00004806        0x0 d:/program files (x86)/microchip/xc32/v1.30/bin/../lib/gcc/pic32mx/4.5.2/../../../../pic32mx/lib\libmchp_peripheral_32MX795F512L.a(I2CEnable.o)
 .debug_str     0x00004806        0x0 d:/program files (x86)/microchip/xc32/v1.30/bin/../lib/gcc/pic32mx/4.5.2/../../../../pic32mx/lib\libmchp_peripheral_32MX795F512L.a(I2CGetByte.o)
 .debug_str     0x00004806        0x0 d:/program files (x86)/microchip/xc32/v1.30/bin/../lib/gcc/pic32mx/4.5.2/../../../../pic32mx/lib\libmchp_peripheral_32MX795F512L.a(I2CGetStatus.o)
 .debug_str     0x00004806        0x0 d:/program files (x86)/microchip/xc32/v1.30/bin/../lib/gcc/pic32mx/4.5.2/../../../../pic32mx/lib\libmchp_peripheral_32MX795F512L.a(I2CReceivedDataIsAvailable.o)
 .debug_str     0x00004806        0x0 d:/program files (x86)/microchip/xc32/v1.30/bin/../lib/gcc/pic32mx/4.5.2/../../../../pic32mx/lib\libmchp_peripheral_32MX795F512L.a(I2CReceiverEnable.o)
 .debug_str     0x00004806        0x0 d:/program files (x86)/microchip/xc32/v1.30/bin/../lib/gcc/pic32mx/4.5.2/../../../../pic32mx/lib\libmchp_peripheral_32MX795F512L.a(I2CRepeatStart.o)
 .debug_str     0x00004806        0x0 d:/program files (x86)/microchip/xc32/v1.30/bin/../lib/gcc/pic32mx/4.5.2/../../../../pic32mx/lib\libmchp_peripheral_32MX795F512L.a(I2CSendByte.o)
 .debug_str     0x00004806        0x0 d:/program files (x86)/microchip/xc32/v1.30/bin/../lib/gcc/pic32mx/4.5.2/../../../../pic32mx/lib\libmchp_peripheral_32MX795F512L.a(I2CSetFrequency.o)
 .debug_str     0x00004806        0x0 d:/program files (x86)/microchip/xc32/v1.30/bin/../lib/gcc/pic32mx/4.5.2/../../../../pic32mx/lib\libmchp_peripheral_32MX795F512L.a(I2CSetSlaveAddress.o)
 .debug_str     0x00004806        0x0 d:/program files (x86)/microchip/xc32/v1.30/bin/../lib/gcc/pic32mx/4.5.2/../../../../pic32mx/lib\libmchp_peripheral_32MX795F512L.a(I2CStart.o)
 .debug_str     0x00004806        0x0 d:/program files (x86)/microchip/xc32/v1.30/bin/../lib/gcc/pic32mx/4.5.2/../../../../pic32mx/lib\libmchp_peripheral_32MX795F512L.a(I2CStop.o)
 .debug_str     0x00004806        0x0 d:/program files (x86)/microchip/xc32/v1.30/bin/../lib/gcc/pic32mx/4.5.2/../../../../pic32mx/lib\libmchp_peripheral_32MX795F512L.a(I2CTransmissionHasCompleted.o)
 .debug_str     0x00004806        0x0 d:/program files (x86)/microchip/xc32/v1.30/bin/../lib/gcc/pic32mx/4.5.2/../../../../pic32mx/lib\libmchp_peripheral_32MX795F512L.a(I2CTransmitterIsReady.o)
 .debug_str     0x00004806        0x0 d:/program files (x86)/microchip/xc32/v1.30/bin/../lib/gcc/pic32mx/4.5.2/../../../../pic32mx/lib\libmchp_peripheral_32MX795F512L.a(I2CPrivate.o)
 .debug_str     0x00004806        0x0 d:/program files (x86)/microchip/xc32/v1.30/bin/../lib/gcc/pic32mx/4.5.2\libgcc.a(floatunsisf.o)
 .debug_str     0x00004806        0x0 d:/program files (x86)/microchip/xc32/v1.30/bin/../lib/gcc/pic32mx/4.5.2/../../../../pic32mx/lib\libpic32.a(default-bootstrap-exception-handler.o)
 .debug_str     0x00004806        0x0 d:/program files (x86)/microchip/xc32/v1.30/bin/../lib/gcc/pic32mx/4.5.2/../../../../pic32mx/lib\libpic32.a(default-on-reset.o)
 .debug_str     0x00004806        0x0 d:/program files (x86)/microchip/xc32/v1.30/bin/../lib/gcc/pic32mx/4.5.2/../../../../pic32mx/lib\libpic32.a(default-on-bootstrap.o)
 .debug_str     0x00004806        0x0 d:/program files (x86)/microchip/xc32/v1.30/bin/../lib/gcc/pic32mx/4.5.2/../../../../pic32mx/lib\libpic32.a(default-general-exception-handler.o)
 .debug_str     0x00004806        0x0 d:/program files (x86)/microchip/xc32/v1.30/bin/../lib/gcc/pic32mx/4.5.2/../../../../pic32mx/lib\libc.a(atoi.o)
 .debug_str     0x00004806        0x0 d:/program files (x86)/microchip/xc32/v1.30/bin/../lib/gcc/pic32mx/4.5.2/../../../../pic32mx/lib\libc.a(cldiv.o)
 .debug_str     0x00004806        0x0 d:/program files (x86)/microchip/xc32/v1.30/bin/../lib/gcc/pic32mx/4.5.2/../../../../pic32mx/lib\libc.a(ctype.o)
 .debug_str     0x00004806        0x0 d:/program files (x86)/microchip/xc32/v1.30/bin/../lib/gcc/pic32mx/4.5.2/../../../../pic32mx/lib\libc.a(itoa.o)
 .debug_str     0x00004806        0x0 d:/program files (x86)/microchip/xc32/v1.30/bin/../lib/gcc/pic32mx/4.5.2/../../../../pic32mx/lib\libc.a(strchr.o)
 .debug_str     0x00004806        0x0 d:/program files (x86)/microchip/xc32/v1.30/bin/../lib/gcc/pic32mx/4.5.2/../../../../pic32mx/lib\libc.a(strstr.o)
 .debug_str     0x00004806        0x0 d:/program files (x86)/microchip/xc32/v1.30/bin/../lib/gcc/pic32mx/4.5.2/../../../../pic32mx/lib\libc.a(strtol.o)
 .debug_str     0x00004806        0x0 d:/program files (x86)/microchip/xc32/v1.30/bin/../lib/gcc/pic32mx/4.5.2/../../../../pic32mx/lib\libc.a(atof.o)
 .debug_str     0x00004806        0x0 d:/program files (x86)/microchip/xc32/v1.30/bin/../lib/gcc/pic32mx/4.5.2/../../../../pic32mx/lib\libc.a(sprintf_cdfFnopuxX.eo)
 .debug_str     0x00004806        0x0 d:/program files (x86)/microchip/xc32/v1.30/bin/../lib/gcc/pic32mx/4.5.2/../../../../pic32mx/lib\libc.a(vsprintf.o)
 .debug_str     0x00004806        0x0 d:/program files (x86)/microchip/xc32/v1.30/bin/../lib/gcc/pic32mx/4.5.2/../../../../pic32mx/lib\libc.a(ctypef.o)
 .debug_str     0x00004806        0x0 d:/program files (x86)/microchip/xc32/v1.30/bin/../lib/gcc/pic32mx/4.5.2/../../../../pic32mx/lib\libc.a(errno.o)
 .debug_str     0x00004806        0x0 d:/program files (x86)/microchip/xc32/v1.30/bin/../lib/gcc/pic32mx/4.5.2/../../../../pic32mx/lib\libc.a(strncmp.o)
 .debug_str     0x00004806        0x9 d:/program files (x86)/microchip/xc32/v1.30/bin/../lib/gcc/pic32mx/4.5.2/../../../../pic32mx/lib\libc.a(strtof.o)
 .debug_str     0x0000480f        0x0 d:/program files (x86)/microchip/xc32/v1.30/bin/../lib/gcc/pic32mx/4.5.2/../../../../pic32mx/lib\libc.a(doprnt_cdfFnopuxX.eo)
 .debug_str     0x0000480f        0x0 d:/program files (x86)/microchip/xc32/v1.30/bin/../lib/gcc/pic32mx/4.5.2/../../../../pic32mx/lib\libc.a(doprnt.o)
 .debug_str     0x0000480f        0x0 d:/program files (x86)/microchip/xc32/v1.30/bin/../lib/gcc/pic32mx/4.5.2/../../../../pic32mx/lib\libc.a(_fputc_simple.o)
 .debug_str     0x0000480f        0x0 d:/program files (x86)/microchip/xc32/v1.30/bin/../lib/gcc/pic32mx/4.5.2/../../../../pic32mx/lib\libc.a(powersf.o)
 .debug_str     0x0000480f        0x0 d:/program files (x86)/microchip/xc32/v1.30/bin/../lib/gcc/pic32mx/4.5.2/../../../../pic32mx/lib\libc.a(_iob.o)
 .debug_str     0x0000480f        0x0 d:/program files (x86)/microchip/xc32/v1.30/bin/../lib/gcc/pic32mx/4.5.2/../../../../pic32mx/lib\libc.a(_flsbuf_simple.o)
 .debug_str     0x0000480f        0x0 d:/program files (x86)/microchip/xc32/v1.30/bin/../lib/gcc/pic32mx/4.5.2/../../../../pic32mx/lib\libpic32.a(write.o)
 .debug_str     0x0000480f        0x0 d:/program files (x86)/microchip/xc32/v1.30/bin/../lib/gcc/pic32mx/4.5.2/../../../../pic32mx/lib\libpic32.a(_mon_putc.o)
 .debug_str     0x0000480f        0x0 d:/program files (x86)/microchip/xc32/v1.30/bin/../lib/gcc/pic32mx/4.5.2/../../../../pic32mx/lib\libpic32.a(xc32_uart.o)
 .debug_str     0x0000480f        0x0 d:/program files (x86)/microchip/xc32/v1.30/bin/../lib/gcc/pic32mx/4.5.2/../../../../pic32mx/lib\libe.a(_floatdisf.o)
 .debug_str     0x0000480f        0x0 d:/program files (x86)/microchip/xc32/v1.30/bin/../lib/gcc/pic32mx/4.5.2/../../../../pic32mx/lib\libe.a(_strtof.o)
 .debug_str     0x0000480f        0x0 d:/program files (x86)/microchip/xc32/v1.30/bin/../lib/gcc/pic32mx/4.5.2/../../../../pic32mx/lib\libe.a(_ldexpf.o)
 .debug_str     0x0000480f        0x0 d:/program files (x86)/microchip/xc32/v1.30/bin/../lib/gcc/pic32mx/4.5.2\libgcc.a(_floatundisf.o)
 .debug_str     0x0000480f        0x0 d:/program files (x86)/microchip/xc32/v1.30/bin/../lib/gcc/pic32mx/4.5.2\libgcc.a(_udivdi3.o)
 .debug_str     0x0000480f        0x0 d:/program files (x86)/microchip/xc32/v1.30/bin/../lib/gcc/pic32mx/4.5.2\libgcc.a(_umoddi3.o)

.debug_loc      0x00000000     0x1440
 *(.debug_loc)
 .debug_loc     0x00000000       0x68 d:/program files (x86)/microchip/xc32/v1.30/bin/../lib/gcc/pic32mx/4.5.2\libgcc.a(floatunsisf.o)
 .debug_loc     0x00000068       0xc9 d:/program files (x86)/microchip/xc32/v1.30/bin/../lib/gcc/pic32mx/4.5.2\libgcc.a(_floatundisf.o)
 .debug_loc     0x00000131      0x9f9 d:/program files (x86)/microchip/xc32/v1.30/bin/../lib/gcc/pic32mx/4.5.2\libgcc.a(_udivdi3.o)
 .debug_loc     0x00000b2a      0x916 d:/program files (x86)/microchip/xc32/v1.30/bin/../lib/gcc/pic32mx/4.5.2\libgcc.a(_umoddi3.o)

.debug_macinfo
 *(.debug_macinfo)

.debug_weaknames
 *(.debug_weaknames)

.debug_funcnames
 *(.debug_funcnames)

.debug_typenames
 *(.debug_typenames)

.debug_varnames
 *(.debug_varnames)

.debug_pubtypes
                0x00000000     0x5346
 *(.debug_pubtypes)
 .debug_pubtypes
                0x00000000      0x2ac build/default/production/_ext/1246622842/24lcxxx.o
 .debug_pubtypes
                0x000002ac      0x297 build/default/production/_ext/1246622842/25vfxxx.o
 .debug_pubtypes
                0x00000543      0x2a1 build/default/production/_ext/1246622842/buzzer.o
 .debug_pubtypes
                0x000007e4      0x2a2 build/default/production/_ext/1246622842/clock.o
 .debug_pubtypes
                0x00000a86      0x33b build/default/production/_ext/1246622842/company.o
 .debug_pubtypes
                0x00000dc1      0x2a4 build/default/production/_ext/1246622842/des.o
 .debug_pubtypes
                0x00001065      0x2a8 build/default/production/_ext/1246622842/disp.o
 .debug_pubtypes
                0x0000130d      0x462 build/default/production/_ext/1246622842/ic_card.o
 .debug_pubtypes
                0x0000176f      0x2e0 build/default/production/_ext/1246622842/iic.o
 .debug_pubtypes
                0x00001a4f      0x2c1 build/default/production/_ext/1218090624/init.o
 .debug_pubtypes
                0x00001d10      0x2f7 build/default/production/_ext/1218090624/kernel.o
 .debug_pubtypes
                0x00002007      0x2c7 build/default/production/_ext/1246622842/key.o
 .debug_pubtypes
                0x000022ce      0x2c3 build/default/production/_ext/1246622842/lcd.o
 .debug_pubtypes
                0x00002591      0x31f build/default/production/_ext/1246622842/lngctrl.o
 .debug_pubtypes
                0x000028b0      0x297 build/default/production/_ext/1246622842/lngdebug.o
 .debug_pubtypes
                0x00002b47      0x2a9 build/default/production/_ext/1218090624/main.o
 .debug_pubtypes
                0x00002df0      0x2a8 build/default/production/_ext/1218090624/main_ui.o
 .debug_pubtypes
                0x00003098      0x2b8 build/default/production/_ext/1218090624/module_test.o
 .debug_pubtypes
                0x00003350      0x2e3 build/default/production/_ext/1246622842/nand.o
 .debug_pubtypes
                0x00003633      0x2b1 build/default/production/_ext/1246622842/print.o
 .debug_pubtypes
                0x000038e4      0x2f0 build/default/production/_ext/1246622842/qry.o
 .debug_pubtypes
                0x00003bd4      0x2d3 build/default/production/_ext/1218090624/sign.o
 .debug_pubtypes
                0x00003ea7      0x2d3 build/default/production/_ext/1246622842/soe.o
 .debug_pubtypes
                0x0000417a      0x297 build/default/production/_ext/1218090624/store.o
 .debug_pubtypes
                0x00004411      0x306 build/default/production/_ext/1218090624/sysset.o
 .debug_pubtypes
                0x00004717      0x297 build/default/production/_ext/1246622842/TempDetection.o
 .debug_pubtypes
                0x000049ae      0x2e2 build/default/production/_ext/1246622842/uart.o
 .debug_pubtypes
                0x00004c90      0x2c8 build/default/production/_ext/1246622842/gas_log.o
 .debug_pubtypes
                0x00004f58      0x2c8 build/default/production/_ext/1246622842/gas_log_sp.o
 .debug_pubtypes
                0x00005220       0x34 d:/program files (x86)/microchip/xc32/v1.30/bin/../lib/gcc/pic32mx/4.5.2\libgcc.a(floatunsisf.o)
 .debug_pubtypes
                0x00005254       0x40 d:/program files (x86)/microchip/xc32/v1.30/bin/../lib/gcc/pic32mx/4.5.2\libgcc.a(_floatundisf.o)
 .debug_pubtypes
                0x00005294       0x59 d:/program files (x86)/microchip/xc32/v1.30/bin/../lib/gcc/pic32mx/4.5.2\libgcc.a(_udivdi3.o)
 .debug_pubtypes
                0x000052ed       0x59 d:/program files (x86)/microchip/xc32/v1.30/bin/../lib/gcc/pic32mx/4.5.2\libgcc.a(_umoddi3.o)

.debug_ranges   0x00000000      0x260
 *(.debug_ranges)
 .debug_ranges  0x00000000       0x10 d:/program files (x86)/microchip/xc32/v1.30/bin/../lib/gcc/pic32mx/4.5.2/../../../../pic32mx/lib\libmchp_peripheral.a(open_core_timer_lib.o)
 .debug_ranges  0x00000010       0x10 d:/program files (x86)/microchip/xc32/v1.30/bin/../lib/gcc/pic32mx/4.5.2/../../../../pic32mx/lib\libmchp_peripheral.a(update_core_timer_lib.o)
 .debug_ranges  0x00000020       0x18 d:/program files (x86)/microchip/xc32/v1.30/bin/../lib/gcc/pic32mx/4.5.2/../../../../pic32mx/lib\libmchp_peripheral_32MX795F512L.a(pcache.o)
 .debug_ranges  0x00000038       0x10 d:/program files (x86)/microchip/xc32/v1.30/bin/../lib/gcc/pic32mx/4.5.2/../../../../pic32mx/lib\libmchp_peripheral_32MX795F512L.a(int_configure_system_lib.o)
 .debug_ranges  0x00000048       0x10 d:/program files (x86)/microchip/xc32/v1.30/bin/../lib/gcc/pic32mx/4.5.2/../../../../pic32mx/lib\libmchp_peripheral_32MX795F512L.a(int_enable_interrupts_lib.o)
 .debug_ranges  0x00000058       0x10 d:/program files (x86)/microchip/xc32/v1.30/bin/../lib/gcc/pic32mx/4.5.2/../../../../pic32mx/lib\libmchp_peripheral_32MX795F512L.a(int_disable_interrupts_lib.o)
 .debug_ranges  0x00000068       0x10 d:/program files (x86)/microchip/xc32/v1.30/bin/../lib/gcc/pic32mx/4.5.2/../../../../pic32mx/lib\libmchp_peripheral_32MX795F512L.a(int_restore_interrupts_lib.o)
 .debug_ranges  0x00000078       0x50 d:/program files (x86)/microchip/xc32/v1.30/bin/../lib/gcc/pic32mx/4.5.2/../../../../pic32mx/lib\libmchp_peripheral_32MX795F512L.a(int_tbl_lib.o)
 .debug_ranges  0x000000c8       0x10 d:/program files (x86)/microchip/xc32/v1.30/bin/../lib/gcc/pic32mx/4.5.2/../../../../pic32mx/lib\libmchp_peripheral_32MX795F512L.a(port_set_pins_digital_in_lib.o)
 .debug_ranges  0x000000d8       0x10 d:/program files (x86)/microchip/xc32/v1.30/bin/../lib/gcc/pic32mx/4.5.2/../../../../pic32mx/lib\libmchp_peripheral_32MX795F512L.a(port_set_pins_digital_out_lib.o)
 .debug_ranges  0x000000e8       0x48 d:/program files (x86)/microchip/xc32/v1.30/bin/../lib/gcc/pic32mx/4.5.2/../../../../pic32mx/lib\libmchp_peripheral_32MX795F512L.a(uart_lib.o)
 .debug_ranges  0x00000130       0x10 d:/program files (x86)/microchip/xc32/v1.30/bin/../lib/gcc/pic32mx/4.5.2/../../../../pic32mx/lib\libmchp_peripheral_32MX795F512L.a(idle_i2c2_lib_legacy.o)
 .debug_ranges  0x00000140       0x10 d:/program files (x86)/microchip/xc32/v1.30/bin/../lib/gcc/pic32mx/4.5.2/../../../../pic32mx/lib\libmchp_peripheral_32MX795F512L.a(master_read_i2c2_lib_legacy.o)
 .debug_ranges  0x00000150       0x10 d:/program files (x86)/microchip/xc32/v1.30/bin/../lib/gcc/pic32mx/4.5.2/../../../../pic32mx/lib\libmchp_peripheral_32MX795F512L.a(master_write_i2c2_lib_legacy.o)
 .debug_ranges  0x00000160       0x10 d:/program files (x86)/microchip/xc32/v1.30/bin/../lib/gcc/pic32mx/4.5.2/../../../../pic32mx/lib\libmchp_peripheral_32MX795F512L.a(I2CBusIsIdle.o)
 .debug_ranges  0x00000170       0x10 d:/program files (x86)/microchip/xc32/v1.30/bin/../lib/gcc/pic32mx/4.5.2/../../../../pic32mx/lib\libmchp_peripheral_32MX795F512L.a(I2CByteWasAcknowledged.o)
 .debug_ranges  0x00000180       0x10 d:/program files (x86)/microchip/xc32/v1.30/bin/../lib/gcc/pic32mx/4.5.2/../../../../pic32mx/lib\libmchp_peripheral_32MX795F512L.a(I2CConfigure.o)
 .debug_ranges  0x00000190       0x10 d:/program files (x86)/microchip/xc32/v1.30/bin/../lib/gcc/pic32mx/4.5.2/../../../../pic32mx/lib\libmchp_peripheral_32MX795F512L.a(I2CEnable.o)
 .debug_ranges  0x000001a0       0x10 d:/program files (x86)/microchip/xc32/v1.30/bin/../lib/gcc/pic32mx/4.5.2/../../../../pic32mx/lib\libmchp_peripheral_32MX795F512L.a(I2CGetByte.o)
 .debug_ranges  0x000001b0       0x10 d:/program files (x86)/microchip/xc32/v1.30/bin/../lib/gcc/pic32mx/4.5.2/../../../../pic32mx/lib\libmchp_peripheral_32MX795F512L.a(I2CGetStatus.o)
 .debug_ranges  0x000001c0       0x10 d:/program files (x86)/microchip/xc32/v1.30/bin/../lib/gcc/pic32mx/4.5.2/../../../../pic32mx/lib\libmchp_peripheral_32MX795F512L.a(I2CReceivedDataIsAvailable.o)
 .debug_ranges  0x000001d0       0x10 d:/program files (x86)/microchip/xc32/v1.30/bin/../lib/gcc/pic32mx/4.5.2/../../../../pic32mx/lib\libmchp_peripheral_32MX795F512L.a(I2CReceiverEnable.o)
 .debug_ranges  0x000001e0       0x10 d:/program files (x86)/microchip/xc32/v1.30/bin/../lib/gcc/pic32mx/4.5.2/../../../../pic32mx/lib\libmchp_peripheral_32MX795F512L.a(I2CRepeatStart.o)
 .debug_ranges  0x000001f0       0x10 d:/program files (x86)/microchip/xc32/v1.30/bin/../lib/gcc/pic32mx/4.5.2/../../../../pic32mx/lib\libmchp_peripheral_32MX795F512L.a(I2CSendByte.o)
 .debug_ranges  0x00000200       0x10 d:/program files (x86)/microchip/xc32/v1.30/bin/../lib/gcc/pic32mx/4.5.2/../../../../pic32mx/lib\libmchp_peripheral_32MX795F512L.a(I2CSetFrequency.o)
 .debug_ranges  0x00000210       0x10 d:/program files (x86)/microchip/xc32/v1.30/bin/../lib/gcc/pic32mx/4.5.2/../../../../pic32mx/lib\libmchp_peripheral_32MX795F512L.a(I2CSetSlaveAddress.o)
 .debug_ranges  0x00000220       0x10 d:/program files (x86)/microchip/xc32/v1.30/bin/../lib/gcc/pic32mx/4.5.2/../../../../pic32mx/lib\libmchp_peripheral_32MX795F512L.a(I2CStart.o)
 .debug_ranges  0x00000230       0x10 d:/program files (x86)/microchip/xc32/v1.30/bin/../lib/gcc/pic32mx/4.5.2/../../../../pic32mx/lib\libmchp_peripheral_32MX795F512L.a(I2CStop.o)
 .debug_ranges  0x00000240       0x10 d:/program files (x86)/microchip/xc32/v1.30/bin/../lib/gcc/pic32mx/4.5.2/../../../../pic32mx/lib\libmchp_peripheral_32MX795F512L.a(I2CTransmissionHasCompleted.o)
 .debug_ranges  0x00000250       0x10 d:/program files (x86)/microchip/xc32/v1.30/bin/../lib/gcc/pic32mx/4.5.2/../../../../pic32mx/lib\libmchp_peripheral_32MX795F512L.a(I2CTransmitterIsReady.o)

.gnu.attributes
                0x00000000       0x10
 *(.gnu.attributes)
 .gnu.attributes
                0x00000000       0x10 build/default/production/_ext/1246622842/24lcxxx.o
 .gnu.attributes
                0x00000010       0x10 build/default/production/_ext/1246622842/25vfxxx.o
 .gnu.attributes
                0x00000020       0x10 build/default/production/_ext/1246622842/buzzer.o
 .gnu.attributes
                0x00000030       0x10 build/default/production/_ext/1246622842/clock.o
 .gnu.attributes
                0x00000040       0x10 build/default/production/_ext/1246622842/company.o
 .gnu.attributes
                0x00000050       0x10 build/default/production/_ext/1246622842/des.o
 .gnu.attributes
                0x00000060       0x10 build/default/production/_ext/1246622842/disp.o
 .gnu.attributes
                0x00000070       0x10 build/default/production/_ext/1246622842/ic_card.o
 .gnu.attributes
                0x00000080       0x10 build/default/production/_ext/1246622842/iic.o
 .gnu.attributes
                0x00000090       0x10 build/default/production/_ext/1218090624/init.o
 .gnu.attributes
                0x000000a0       0x10 build/default/production/_ext/1218090624/kernel.o
 .gnu.attributes
                0x000000b0       0x10 build/default/production/_ext/1246622842/key.o
 .gnu.attributes
                0x000000c0       0x10 build/default/production/_ext/1246622842/lcd.o
 .gnu.attributes
                0x000000d0       0x10 build/default/production/_ext/1246622842/lngctrl.o
 .gnu.attributes
                0x000000e0       0x10 build/default/production/_ext/1246622842/lngdebug.o
 .gnu.attributes
                0x000000f0       0x10 build/default/production/_ext/1218090624/main.o
 .gnu.attributes
                0x00000100       0x10 build/default/production/_ext/1218090624/main_ui.o
 .gnu.attributes
                0x00000110       0x10 build/default/production/_ext/1218090624/module_test.o
 .gnu.attributes
                0x00000120       0x10 build/default/production/_ext/1246622842/nand.o
 .gnu.attributes
                0x00000130       0x10 build/default/production/_ext/1246622842/print.o
 .gnu.attributes
                0x00000140       0x10 build/default/production/_ext/1246622842/qry.o
 .gnu.attributes
                0x00000150       0x10 build/default/production/_ext/1218090624/sign.o
 .gnu.attributes
                0x00000160       0x10 build/default/production/_ext/1246622842/soe.o
 .gnu.attributes
                0x00000170       0x10 build/default/production/_ext/1218090624/store.o
 .gnu.attributes
                0x00000180       0x10 build/default/production/_ext/1218090624/sysset.o
 .gnu.attributes
                0x00000190       0x10 build/default/production/_ext/1246622842/TempDetection.o
 .gnu.attributes
                0x000001a0       0x10 build/default/production/_ext/1246622842/uart.o
 .gnu.attributes
                0x000001b0       0x10 build/default/production/_ext/1246622842/gas_log.o
 .gnu.attributes
                0x000001c0       0x10 build/default/production/_ext/1246622842/gas_log_sp.o
 .gnu.attributes
                0x000001d0       0x10 d:/program files (x86)/microchip/xc32/v1.30/bin/../lib/gcc/pic32mx/4.5.2/../../../../pic32mx/lib\libmchp_peripheral.a(open_core_timer_lib.o)
 .gnu.attributes
                0x000001e0       0x10 d:/program files (x86)/microchip/xc32/v1.30/bin/../lib/gcc/pic32mx/4.5.2/../../../../pic32mx/lib\libmchp_peripheral.a(update_core_timer_lib.o)
 .gnu.attributes
                0x000001f0       0x10 d:/program files (x86)/microchip/xc32/v1.30/bin/../lib/gcc/pic32mx/4.5.2/../../../../pic32mx/lib\libmchp_peripheral_32MX795F512L.a(pcache.o)
 .gnu.attributes
                0x00000200       0x10 d:/program files (x86)/microchip/xc32/v1.30/bin/../lib/gcc/pic32mx/4.5.2/../../../../pic32mx/lib\libmchp_peripheral_32MX795F512L.a(int_configure_system_lib.o)
 .gnu.attributes
                0x00000210       0x10 d:/program files (x86)/microchip/xc32/v1.30/bin/../lib/gcc/pic32mx/4.5.2/../../../../pic32mx/lib\libmchp_peripheral_32MX795F512L.a(int_enable_interrupts_lib.o)
 .gnu.attributes
                0x00000220       0x10 d:/program files (x86)/microchip/xc32/v1.30/bin/../lib/gcc/pic32mx/4.5.2/../../../../pic32mx/lib\libmchp_peripheral_32MX795F512L.a(int_disable_interrupts_lib.o)
 .gnu.attributes
                0x00000230       0x10 d:/program files (x86)/microchip/xc32/v1.30/bin/../lib/gcc/pic32mx/4.5.2/../../../../pic32mx/lib\libmchp_peripheral_32MX795F512L.a(int_restore_interrupts_lib.o)
 .gnu.attributes
                0x00000240       0x10 d:/program files (x86)/microchip/xc32/v1.30/bin/../lib/gcc/pic32mx/4.5.2/../../../../pic32mx/lib\libmchp_peripheral_32MX795F512L.a(int_tbl_lib.o)
 .gnu.attributes
                0x00000250       0x10 d:/program files (x86)/microchip/xc32/v1.30/bin/../lib/gcc/pic32mx/4.5.2/../../../../pic32mx/lib\libmchp_peripheral_32MX795F512L.a(port_set_pins_digital_in_lib.o)
 .gnu.attributes
                0x00000260       0x10 d:/program files (x86)/microchip/xc32/v1.30/bin/../lib/gcc/pic32mx/4.5.2/../../../../pic32mx/lib\libmchp_peripheral_32MX795F512L.a(port_set_pins_digital_out_lib.o)
 .gnu.attributes
                0x00000270       0x10 d:/program files (x86)/microchip/xc32/v1.30/bin/../lib/gcc/pic32mx/4.5.2/../../../../pic32mx/lib\libmchp_peripheral_32MX795F512L.a(_ports_tbl_libp.o)
 .gnu.attributes
                0x00000280       0x10 d:/program files (x86)/microchip/xc32/v1.30/bin/../lib/gcc/pic32mx/4.5.2/../../../../pic32mx/lib\libmchp_peripheral_32MX795F512L.a(uart_lib.o)
 .gnu.attributes
                0x00000290       0x10 d:/program files (x86)/microchip/xc32/v1.30/bin/../lib/gcc/pic32mx/4.5.2/../../../../pic32mx/lib\libmchp_peripheral_32MX795F512L.a(idle_i2c2_lib_legacy.o)
 .gnu.attributes
                0x000002a0       0x10 d:/program files (x86)/microchip/xc32/v1.30/bin/../lib/gcc/pic32mx/4.5.2/../../../../pic32mx/lib\libmchp_peripheral_32MX795F512L.a(master_read_i2c2_lib_legacy.o)
 .gnu.attributes
                0x000002b0       0x10 d:/program files (x86)/microchip/xc32/v1.30/bin/../lib/gcc/pic32mx/4.5.2/../../../../pic32mx/lib\libmchp_peripheral_32MX795F512L.a(master_write_i2c2_lib_legacy.o)
 .gnu.attributes
                0x000002c0       0x10 d:/program files (x86)/microchip/xc32/v1.30/bin/../lib/gcc/pic32mx/4.5.2/../../../../pic32mx/lib\libmchp_peripheral_32MX795F512L.a(I2CBusIsIdle.o)
 .gnu.attributes
                0x000002d0       0x10 d:/program files (x86)/microchip/xc32/v1.30/bin/../lib/gcc/pic32mx/4.5.2/../../../../pic32mx/lib\libmchp_peripheral_32MX795F512L.a(I2CByteWasAcknowledged.o)
 .gnu.attributes
                0x000002e0       0x10 d:/program files (x86)/microchip/xc32/v1.30/bin/../lib/gcc/pic32mx/4.5.2/../../../../pic32mx/lib\libmchp_peripheral_32MX795F512L.a(I2CConfigure.o)
 .gnu.attributes
                0x000002f0       0x10 d:/program files (x86)/microchip/xc32/v1.30/bin/../lib/gcc/pic32mx/4.5.2/../../../../pic32mx/lib\libmchp_peripheral_32MX795F512L.a(I2CEnable.o)
 .gnu.attributes
                0x00000300       0x10 d:/program files (x86)/microchip/xc32/v1.30/bin/../lib/gcc/pic32mx/4.5.2/../../../../pic32mx/lib\libmchp_peripheral_32MX795F512L.a(I2CGetByte.o)
 .gnu.attributes
                0x00000310       0x10 d:/program files (x86)/microchip/xc32/v1.30/bin/../lib/gcc/pic32mx/4.5.2/../../../../pic32mx/lib\libmchp_peripheral_32MX795F512L.a(I2CGetStatus.o)
 .gnu.attributes
                0x00000320       0x10 d:/program files (x86)/microchip/xc32/v1.30/bin/../lib/gcc/pic32mx/4.5.2/../../../../pic32mx/lib\libmchp_peripheral_32MX795F512L.a(I2CReceivedDataIsAvailable.o)
 .gnu.attributes
                0x00000330       0x10 d:/program files (x86)/microchip/xc32/v1.30/bin/../lib/gcc/pic32mx/4.5.2/../../../../pic32mx/lib\libmchp_peripheral_32MX795F512L.a(I2CReceiverEnable.o)
 .gnu.attributes
                0x00000340       0x10 d:/program files (x86)/microchip/xc32/v1.30/bin/../lib/gcc/pic32mx/4.5.2/../../../../pic32mx/lib\libmchp_peripheral_32MX795F512L.a(I2CRepeatStart.o)
 .gnu.attributes
                0x00000350       0x10 d:/program files (x86)/microchip/xc32/v1.30/bin/../lib/gcc/pic32mx/4.5.2/../../../../pic32mx/lib\libmchp_peripheral_32MX795F512L.a(I2CSendByte.o)
 .gnu.attributes
                0x00000360       0x10 d:/program files (x86)/microchip/xc32/v1.30/bin/../lib/gcc/pic32mx/4.5.2/../../../../pic32mx/lib\libmchp_peripheral_32MX795F512L.a(I2CSetFrequency.o)
 .gnu.attributes
                0x00000370       0x10 d:/program files (x86)/microchip/xc32/v1.30/bin/../lib/gcc/pic32mx/4.5.2/../../../../pic32mx/lib\libmchp_peripheral_32MX795F512L.a(I2CSetSlaveAddress.o)
 .gnu.attributes
                0x00000380       0x10 d:/program files (x86)/microchip/xc32/v1.30/bin/../lib/gcc/pic32mx/4.5.2/../../../../pic32mx/lib\libmchp_peripheral_32MX795F512L.a(I2CStart.o)
 .gnu.attributes
                0x00000390       0x10 d:/program files (x86)/microchip/xc32/v1.30/bin/../lib/gcc/pic32mx/4.5.2/../../../../pic32mx/lib\libmchp_peripheral_32MX795F512L.a(I2CStop.o)
 .gnu.attributes
                0x000003a0       0x10 d:/program files (x86)/microchip/xc32/v1.30/bin/../lib/gcc/pic32mx/4.5.2/../../../../pic32mx/lib\libmchp_peripheral_32MX795F512L.a(I2CTransmissionHasCompleted.o)
 .gnu.attributes
                0x000003b0       0x10 d:/program files (x86)/microchip/xc32/v1.30/bin/../lib/gcc/pic32mx/4.5.2/../../../../pic32mx/lib\libmchp_peripheral_32MX795F512L.a(I2CTransmitterIsReady.o)
 .gnu.attributes
                0x000003c0       0x10 d:/program files (x86)/microchip/xc32/v1.30/bin/../lib/gcc/pic32mx/4.5.2/../../../../pic32mx/lib\libmchp_peripheral_32MX795F512L.a(I2CPrivate.o)
 .gnu.attributes
                0x000003d0       0x10 d:/program files (x86)/microchip/xc32/v1.30/bin/../lib/gcc/pic32mx/4.5.2\libgcc.a(floatunsisf.o)
 .gnu.attributes
                0x000003e0       0x10 d:/program files (x86)/microchip/xc32/v1.30/bin/../lib/gcc/pic32mx/4.5.2/../../../../pic32mx/lib\libpic32.a(default-bootstrap-exception-handler.o)
 .gnu.attributes
                0x000003f0       0x10 d:/program files (x86)/microchip/xc32/v1.30/bin/../lib/gcc/pic32mx/4.5.2/../../../../pic32mx/lib\libpic32.a(default-on-reset.o)
 .gnu.attributes
                0x00000400       0x10 d:/program files (x86)/microchip/xc32/v1.30/bin/../lib/gcc/pic32mx/4.5.2/../../../../pic32mx/lib\libpic32.a(default-on-bootstrap.o)
 .gnu.attributes
                0x00000410       0x10 d:/program files (x86)/microchip/xc32/v1.30/bin/../lib/gcc/pic32mx/4.5.2/../../../../pic32mx/lib\libpic32.a(default-general-exception-handler.o)
 .gnu.attributes
                0x00000420       0x10 d:/program files (x86)/microchip/xc32/v1.30/bin/../lib/gcc/pic32mx/4.5.2/../../../../pic32mx/lib\libc.a(atoi.o)
 .gnu.attributes
                0x00000430       0x10 d:/program files (x86)/microchip/xc32/v1.30/bin/../lib/gcc/pic32mx/4.5.2/../../../../pic32mx/lib\libc.a(cldiv.o)
 .gnu.attributes
                0x00000440       0x10 d:/program files (x86)/microchip/xc32/v1.30/bin/../lib/gcc/pic32mx/4.5.2/../../../../pic32mx/lib\libc.a(ctype.o)
 .gnu.attributes
                0x00000450       0x10 d:/program files (x86)/microchip/xc32/v1.30/bin/../lib/gcc/pic32mx/4.5.2/../../../../pic32mx/lib\libc.a(itoa.o)
 .gnu.attributes
                0x00000460       0x10 d:/program files (x86)/microchip/xc32/v1.30/bin/../lib/gcc/pic32mx/4.5.2/../../../../pic32mx/lib\libc.a(strchr.o)
 .gnu.attributes
                0x00000470       0x10 d:/program files (x86)/microchip/xc32/v1.30/bin/../lib/gcc/pic32mx/4.5.2/../../../../pic32mx/lib\libc.a(strstr.o)
 .gnu.attributes
                0x00000480       0x10 d:/program files (x86)/microchip/xc32/v1.30/bin/../lib/gcc/pic32mx/4.5.2/../../../../pic32mx/lib\libc.a(strtol.o)
 .gnu.attributes
                0x00000490       0x10 d:/program files (x86)/microchip/xc32/v1.30/bin/../lib/gcc/pic32mx/4.5.2/../../../../pic32mx/lib\libc.a(atof.o)
 .gnu.attributes
                0x000004a0       0x10 d:/program files (x86)/microchip/xc32/v1.30/bin/../lib/gcc/pic32mx/4.5.2/../../../../pic32mx/lib\libc.a(sprintf_cdfFnopuxX.eo)
 .gnu.attributes
                0x000004b0       0x10 d:/program files (x86)/microchip/xc32/v1.30/bin/../lib/gcc/pic32mx/4.5.2/../../../../pic32mx/lib\libc.a(vsprintf.o)
 .gnu.attributes
                0x000004c0       0x10 d:/program files (x86)/microchip/xc32/v1.30/bin/../lib/gcc/pic32mx/4.5.2/../../../../pic32mx/lib\libc.a(ctypef.o)
 .gnu.attributes
                0x000004d0       0x10 d:/program files (x86)/microchip/xc32/v1.30/bin/../lib/gcc/pic32mx/4.5.2/../../../../pic32mx/lib\libc.a(errno.o)
 .gnu.attributes
                0x000004e0       0x10 d:/program files (x86)/microchip/xc32/v1.30/bin/../lib/gcc/pic32mx/4.5.2/../../../../pic32mx/lib\libc.a(strncmp.o)
 .gnu.attributes
                0x000004f0       0x10 d:/program files (x86)/microchip/xc32/v1.30/bin/../lib/gcc/pic32mx/4.5.2/../../../../pic32mx/lib\libc.a(strtof.o)
 .gnu.attributes
                0x00000500       0x10 d:/program files (x86)/microchip/xc32/v1.30/bin/../lib/gcc/pic32mx/4.5.2/../../../../pic32mx/lib\libc.a(doprnt_cdfFnopuxX.eo)
 .gnu.attributes
                0x00000510       0x10 d:/program files (x86)/microchip/xc32/v1.30/bin/../lib/gcc/pic32mx/4.5.2/../../../../pic32mx/lib\libc.a(doprnt.o)
 .gnu.attributes
                0x00000520       0x10 d:/program files (x86)/microchip/xc32/v1.30/bin/../lib/gcc/pic32mx/4.5.2/../../../../pic32mx/lib\libc.a(_fputc_simple.o)
 .gnu.attributes
                0x00000530       0x10 d:/program files (x86)/microchip/xc32/v1.30/bin/../lib/gcc/pic32mx/4.5.2/../../../../pic32mx/lib\libc.a(powersf.o)
 .gnu.attributes
                0x00000540       0x10 d:/program files (x86)/microchip/xc32/v1.30/bin/../lib/gcc/pic32mx/4.5.2/../../../../pic32mx/lib\libc.a(_iob.o)
 .gnu.attributes
                0x00000550       0x10 d:/program files (x86)/microchip/xc32/v1.30/bin/../lib/gcc/pic32mx/4.5.2/../../../../pic32mx/lib\libc.a(_flsbuf_simple.o)
 .gnu.attributes
                0x00000560       0x10 d:/program files (x86)/microchip/xc32/v1.30/bin/../lib/gcc/pic32mx/4.5.2/../../../../pic32mx/lib\libpic32.a(write.o)
 .gnu.attributes
                0x00000570       0x10 d:/program files (x86)/microchip/xc32/v1.30/bin/../lib/gcc/pic32mx/4.5.2/../../../../pic32mx/lib\libpic32.a(_mon_putc.o)
 .gnu.attributes
                0x00000580       0x10 d:/program files (x86)/microchip/xc32/v1.30/bin/../lib/gcc/pic32mx/4.5.2/../../../../pic32mx/lib\libpic32.a(xc32_uart.o)
 .gnu.attributes
                0x00000590       0x10 d:/program files (x86)/microchip/xc32/v1.30/bin/../lib/gcc/pic32mx/4.5.2/../../../../pic32mx/lib\libe.a(_floatdisf.o)
 .gnu.attributes
                0x000005a0       0x10 d:/program files (x86)/microchip/xc32/v1.30/bin/../lib/gcc/pic32mx/4.5.2/../../../../pic32mx/lib\libe.a(_strtof.o)
 .gnu.attributes
                0x000005b0       0x10 d:/program files (x86)/microchip/xc32/v1.30/bin/../lib/gcc/pic32mx/4.5.2/../../../../pic32mx/lib\libe.a(_ldexpf.o)
 .gnu.attributes
                0x000005c0       0x10 d:/program files (x86)/microchip/xc32/v1.30/bin/../lib/gcc/pic32mx/4.5.2\libgcc.a(_floatundisf.o)
 .gnu.attributes
                0x000005d0       0x10 d:/program files (x86)/microchip/xc32/v1.30/bin/../lib/gcc/pic32mx/4.5.2\libgcc.a(_udivdi3.o)
 .gnu.attributes
                0x000005e0       0x10 d:/program files (x86)/microchip/xc32/v1.30/bin/../lib/gcc/pic32mx/4.5.2\libgcc.a(_umoddi3.o)
LOAD d:/program files (x86)/microchip/xc32/v1.30/bin/../lib/gcc/pic32mx/4.5.2\libgcc.a
START GROUP
LOAD d:/program files (x86)/microchip/xc32/v1.30/bin/../lib/gcc/pic32mx/4.5.2/../../../../pic32mx/lib\libpic32.a
LOAD d:/program files (x86)/microchip/xc32/v1.30/bin/../lib/gcc/pic32mx/4.5.2/../../../../pic32mx/lib\libdebug.a
LOAD d:/program files (x86)/microchip/xc32/v1.30/bin/../lib/gcc/pic32mx/4.5.2/../../../../pic32mx/lib\libm.a
LOAD d:/program files (x86)/microchip/xc32/v1.30/bin/../lib/gcc/pic32mx/4.5.2/../../../../pic32mx/lib\libe.a
LOAD d:/program files (x86)/microchip/xc32/v1.30/bin/../lib/gcc/pic32mx/4.5.2/../../../../pic32mx/lib\libdsp.a
LOAD d:/program files (x86)/microchip/xc32/v1.30/bin/../lib/gcc/pic32mx/4.5.2\libgcc.a
LOAD d:/program files (x86)/microchip/xc32/v1.30/bin/../lib/gcc/pic32mx/4.5.2/../../../../pic32mx/lib\libpic32.a
LOAD d:/program files (x86)/microchip/xc32/v1.30/bin/../lib/gcc/pic32mx/4.5.2/../../../../pic32mx/lib\libc.a
LOAD d:/program files (x86)/microchip/xc32/v1.30/bin/../lib/gcc/pic32mx/4.5.2/../../../../pic32mx/lib\libpic32.a
END GROUP
LOAD d:/program files (x86)/microchip/xc32/v1.30/bin/../lib/gcc/pic32mx/4.5.2\libgcc.a
LOAD d:/program files (x86)/microchip/xc32/v1.30/bin/../lib/gcc/pic32mx/4.5.2/../../../../pic32mx/lib\debug-exception-return.o
OUTPUT(dist/default/production/lngsourceXL.X.production.elf elf32-tradlittlemips)
LOAD stack
LOAD data_init

.reginfo        0x00000000       0x18
 .reginfo       0x00000000       0x18 d:/program files (x86)/microchip/xc32/v1.30/bin/../lib/gcc/pic32mx/4.5.2/../../../../pic32mx/lib/./proc/32MX795F512L/crt0_mips32r2.o

.stack          0xa0001db8      0x400
 .stack         0xa0001db8      0x400 stack

.data           0xa00014d4      0x358
 .data          0xa00014d4      0x358 build/default/production/_ext/1246622842/des.o
                0xa00014d4                Table_IP
                0xa0001514                Table_InverseIP
                0xa0001554                Table_E
                0xa0001584                Table_PC1
                0xa00015bc                Table_Move
                0xa00015dc                Table_PC2
                0xa000160c                Table_SBOX
                0xa000180c                Table_P

.bss            0xa000182c      0x390
 .bss           0xa000182c      0x200 build/default/production/_ext/1246622842/uart.o
 .bss           0xa0001a2c      0x190 build/default/production/_ext/1246622842/ic_card.o

.data           0xa0001bbc      0x17c
 .data          0xa0001bbc       0xa0 d:/program files (x86)/microchip/xc32/v1.30/bin/../lib/gcc/pic32mx/4.5.2/../../../../pic32mx/lib\libc.a(_iob.o)
                0xa0001bbc                _iob
 .data          0xa0001c5c       0x8c build/default/production/_ext/1246622842/ic_card.o
                0xa0001c5c                apdupack
 .data          0xa0001ce8       0x50 build/default/production/_ext/1246622842/lngdebug.o
                0xa0001ce8                infoprint
                0xa0001cfc                infoxs
                0xa0001d10                infolx
                0xa0001d20                infott

.bss            0xa0001d38       0x40
 .bss           0xa0001d38       0x40 d:/program files (x86)/microchip/xc32/v1.30/bin/../lib/gcc/pic32mx/4.5.2/../../../../pic32mx/lib\libc.a(_iob.o)
                0xa0001d38                _sibuf
                0xa0001d58                _sobuf

.data           0xa0001d78       0x10
 .data          0xa0001d78       0x10 build/default/production/_ext/1246622842/disp.o
                0xa0001d78                disp_num

.bss%z1         0x00000000        0x0
 .bss           0x00000000        0x0 d:/program files (x86)/microchip/xc32/v1.30/bin/../lib/gcc/pic32mx/4.5.2/../../../../pic32mx/lib\debug-exception-return.o

.data%z2        0x00000000        0x0
 .data          0x00000000        0x0 d:/program files (x86)/microchip/xc32/v1.30/bin/../lib/gcc/pic32mx/4.5.2/../../../../pic32mx/lib\debug-exception-return.o

.bss%z3         0x00000000        0x0
 .bss           0x00000000        0x0 d:/program files (x86)/microchip/xc32/v1.30/bin/../lib/gcc/pic32mx/4.5.2\libgcc.a(_umoddi3.o)

.data%z4        0x00000000        0x0
 .data          0x00000000        0x0 d:/program files (x86)/microchip/xc32/v1.30/bin/../lib/gcc/pic32mx/4.5.2\libgcc.a(_umoddi3.o)

.bss%z5         0x00000000        0x0
 .bss           0x00000000        0x0 d:/program files (x86)/microchip/xc32/v1.30/bin/../lib/gcc/pic32mx/4.5.2\libgcc.a(_udivdi3.o)

.data%z6        0x00000000        0x0
 .data          0x00000000        0x0 d:/program files (x86)/microchip/xc32/v1.30/bin/../lib/gcc/pic32mx/4.5.2\libgcc.a(_udivdi3.o)

.bss%z7         0x00000000        0x0
 .bss           0x00000000        0x0 d:/program files (x86)/microchip/xc32/v1.30/bin/../lib/gcc/pic32mx/4.5.2\libgcc.a(_floatundisf.o)

.data%z8        0x00000000        0x0
 .data          0x00000000        0x0 d:/program files (x86)/microchip/xc32/v1.30/bin/../lib/gcc/pic32mx/4.5.2\libgcc.a(_floatundisf.o)

.bss%z9         0x00000000        0x0
 .bss           0x00000000        0x0 d:/program files (x86)/microchip/xc32/v1.30/bin/../lib/gcc/pic32mx/4.5.2/../../../../pic32mx/lib\libe.a(_ldexpf.o)

.data%z10       0x00000000        0x0
 .data          0x00000000        0x0 d:/program files (x86)/microchip/xc32/v1.30/bin/../lib/gcc/pic32mx/4.5.2/../../../../pic32mx/lib\libe.a(_ldexpf.o)

.bss%z11        0x00000000        0x0
 .bss           0x00000000        0x0 d:/program files (x86)/microchip/xc32/v1.30/bin/../lib/gcc/pic32mx/4.5.2/../../../../pic32mx/lib\libe.a(_strtof.o)

.data%z12       0x00000000        0x0
 .data          0x00000000        0x0 d:/program files (x86)/microchip/xc32/v1.30/bin/../lib/gcc/pic32mx/4.5.2/../../../../pic32mx/lib\libe.a(_strtof.o)

.bss%z13        0x00000000        0x0
 .bss           0x00000000        0x0 d:/program files (x86)/microchip/xc32/v1.30/bin/../lib/gcc/pic32mx/4.5.2/../../../../pic32mx/lib\libe.a(_floatdisf.o)

.data%z14       0x00000000        0x0
 .data          0x00000000        0x0 d:/program files (x86)/microchip/xc32/v1.30/bin/../lib/gcc/pic32mx/4.5.2/../../../../pic32mx/lib\libe.a(_floatdisf.o)

.bss%z15        0x00000000        0x0
 .bss           0x00000000        0x0 d:/program files (x86)/microchip/xc32/v1.30/bin/../lib/gcc/pic32mx/4.5.2/../../../../pic32mx/lib\libm.a(fpmod32.o)

.data%z16       0x00000000        0x0
 .data          0x00000000        0x0 d:/program files (x86)/microchip/xc32/v1.30/bin/../lib/gcc/pic32mx/4.5.2/../../../../pic32mx/lib\libm.a(fpmod32.o)

.bss%z17        0x00000000        0x0
 .bss           0x00000000        0x0 d:/program files (x86)/microchip/xc32/v1.30/bin/../lib/gcc/pic32mx/4.5.2/../../../../pic32mx/lib\libpic32.a(xc32_uart.o)

.data%z18       0x00000000        0x0
 .data          0x00000000        0x0 d:/program files (x86)/microchip/xc32/v1.30/bin/../lib/gcc/pic32mx/4.5.2/../../../../pic32mx/lib\libpic32.a(xc32_uart.o)

.bss%z19        0x00000000        0x0
 .bss           0x00000000        0x0 d:/program files (x86)/microchip/xc32/v1.30/bin/../lib/gcc/pic32mx/4.5.2/../../../../pic32mx/lib\libpic32.a(_mon_putc.o)

.data%z20       0x00000000        0x0
 .data          0x00000000        0x0 d:/program files (x86)/microchip/xc32/v1.30/bin/../lib/gcc/pic32mx/4.5.2/../../../../pic32mx/lib\libpic32.a(_mon_putc.o)

.bss%z21        0x00000000        0x0
 .bss           0x00000000        0x0 d:/program files (x86)/microchip/xc32/v1.30/bin/../lib/gcc/pic32mx/4.5.2/../../../../pic32mx/lib\libpic32.a(write.o)

.data%z22       0x00000000        0x0
 .data          0x00000000        0x0 d:/program files (x86)/microchip/xc32/v1.30/bin/../lib/gcc/pic32mx/4.5.2/../../../../pic32mx/lib\libpic32.a(write.o)

.bss%z23        0x00000000        0x0
 .bss           0x00000000        0x0 d:/program files (x86)/microchip/xc32/v1.30/bin/../lib/gcc/pic32mx/4.5.2/../../../../pic32mx/lib\libc.a(_flsbuf_simple.o)

.data%z24       0x00000000        0x0
 .data          0x00000000        0x0 d:/program files (x86)/microchip/xc32/v1.30/bin/../lib/gcc/pic32mx/4.5.2/../../../../pic32mx/lib\libc.a(_flsbuf_simple.o)

.bss%z25        0x00000000        0x0
 .bss           0x00000000        0x0 d:/program files (x86)/microchip/xc32/v1.30/bin/../lib/gcc/pic32mx/4.5.2/../../../../pic32mx/lib\libc.a(powersf.o)

.data%z26       0x00000000        0x0
 .data          0x00000000        0x0 d:/program files (x86)/microchip/xc32/v1.30/bin/../lib/gcc/pic32mx/4.5.2/../../../../pic32mx/lib\libc.a(powersf.o)

.bss%z27        0x00000000        0x0
 .bss           0x00000000        0x0 d:/program files (x86)/microchip/xc32/v1.30/bin/../lib/gcc/pic32mx/4.5.2/../../../../pic32mx/lib\libc.a(_fputc_simple.o)

.data%z28       0x00000000        0x0
 .data          0x00000000        0x0 d:/program files (x86)/microchip/xc32/v1.30/bin/../lib/gcc/pic32mx/4.5.2/../../../../pic32mx/lib\libc.a(_fputc_simple.o)

.bss%z29        0x00000000        0x0
 .bss           0x00000000        0x0 d:/program files (x86)/microchip/xc32/v1.30/bin/../lib/gcc/pic32mx/4.5.2/../../../../pic32mx/lib\libc.a(doprnt.o)

.data%z30       0x00000000        0x0
 .data          0x00000000        0x0 d:/program files (x86)/microchip/xc32/v1.30/bin/../lib/gcc/pic32mx/4.5.2/../../../../pic32mx/lib\libc.a(doprnt.o)

.bss%z31        0x00000000        0x0
 .bss           0x00000000        0x0 d:/program files (x86)/microchip/xc32/v1.30/bin/../lib/gcc/pic32mx/4.5.2/../../../../pic32mx/lib\libc.a(doprnt_cdfFnopuxX.eo)

.data%z32       0x00000000        0x0
 .data          0x00000000        0x0 d:/program files (x86)/microchip/xc32/v1.30/bin/../lib/gcc/pic32mx/4.5.2/../../../../pic32mx/lib\libc.a(doprnt_cdfFnopuxX.eo)

.bss%z33        0x00000000        0x0
 .bss           0x00000000        0x0 d:/program files (x86)/microchip/xc32/v1.30/bin/../lib/gcc/pic32mx/4.5.2/../../../../pic32mx/lib\libc.a(strtof.o)

.data%z34       0x00000000        0x0
 .data          0x00000000        0x0 d:/program files (x86)/microchip/xc32/v1.30/bin/../lib/gcc/pic32mx/4.5.2/../../../../pic32mx/lib\libc.a(strtof.o)

.bss%z35        0x00000000        0x0
 .bss           0x00000000        0x0 d:/program files (x86)/microchip/xc32/v1.30/bin/../lib/gcc/pic32mx/4.5.2/../../../../pic32mx/lib\libc.a(strncmp.o)

.data%z36       0x00000000        0x0
 .data          0x00000000        0x0 d:/program files (x86)/microchip/xc32/v1.30/bin/../lib/gcc/pic32mx/4.5.2/../../../../pic32mx/lib\libc.a(strncmp.o)

.bss%z37        0x00000000        0x0
 .bss           0x00000000        0x0 d:/program files (x86)/microchip/xc32/v1.30/bin/../lib/gcc/pic32mx/4.5.2/../../../../pic32mx/lib\libc.a(errno.o)

.data%z38       0x00000000        0x0
 .data          0x00000000        0x0 d:/program files (x86)/microchip/xc32/v1.30/bin/../lib/gcc/pic32mx/4.5.2/../../../../pic32mx/lib\libc.a(errno.o)

.bss%z39        0x00000000        0x0
 .bss           0x00000000        0x0 d:/program files (x86)/microchip/xc32/v1.30/bin/../lib/gcc/pic32mx/4.5.2/../../../../pic32mx/lib\libc.a(ctypef.o)

.data%z40       0x00000000        0x0
 .data          0x00000000        0x0 d:/program files (x86)/microchip/xc32/v1.30/bin/../lib/gcc/pic32mx/4.5.2/../../../../pic32mx/lib\libc.a(ctypef.o)

.bss%z41        0x00000000        0x0
 .bss           0x00000000        0x0 d:/program files (x86)/microchip/xc32/v1.30/bin/../lib/gcc/pic32mx/4.5.2/../../../../pic32mx/lib\libc.a(vsprintf.o)

.data%z42       0x00000000        0x0
 .data          0x00000000        0x0 d:/program files (x86)/microchip/xc32/v1.30/bin/../lib/gcc/pic32mx/4.5.2/../../../../pic32mx/lib\libc.a(vsprintf.o)

.bss%z43        0x00000000        0x0
 .bss           0x00000000        0x0 d:/program files (x86)/microchip/xc32/v1.30/bin/../lib/gcc/pic32mx/4.5.2/../../../../pic32mx/lib\libc.a(sprintf_cdfFnopuxX.eo)

.data%z44       0x00000000        0x0
 .data          0x00000000        0x0 d:/program files (x86)/microchip/xc32/v1.30/bin/../lib/gcc/pic32mx/4.5.2/../../../../pic32mx/lib\libc.a(sprintf_cdfFnopuxX.eo)

.bss%z45        0x00000000        0x0
 .bss           0x00000000        0x0 d:/program files (x86)/microchip/xc32/v1.30/bin/../lib/gcc/pic32mx/4.5.2/../../../../pic32mx/lib\libc.a(atof.o)

.data%z46       0x00000000        0x0
 .data          0x00000000        0x0 d:/program files (x86)/microchip/xc32/v1.30/bin/../lib/gcc/pic32mx/4.5.2/../../../../pic32mx/lib\libc.a(atof.o)

.bss%z47        0x00000000        0x0
 .bss           0x00000000        0x0 d:/program files (x86)/microchip/xc32/v1.30/bin/../lib/gcc/pic32mx/4.5.2/../../../../pic32mx/lib\libc.a(strtol.o)

.data%z48       0x00000000        0x0
 .data          0x00000000        0x0 d:/program files (x86)/microchip/xc32/v1.30/bin/../lib/gcc/pic32mx/4.5.2/../../../../pic32mx/lib\libc.a(strtol.o)

.bss%z49        0x00000000        0x0
 .bss           0x00000000        0x0 d:/program files (x86)/microchip/xc32/v1.30/bin/../lib/gcc/pic32mx/4.5.2/../../../../pic32mx/lib\libc.a(strstr.o)

.data%z50       0x00000000        0x0
 .data          0x00000000        0x0 d:/program files (x86)/microchip/xc32/v1.30/bin/../lib/gcc/pic32mx/4.5.2/../../../../pic32mx/lib\libc.a(strstr.o)

.bss%z51        0x00000000        0x0
 .bss           0x00000000        0x0 d:/program files (x86)/microchip/xc32/v1.30/bin/../lib/gcc/pic32mx/4.5.2/../../../../pic32mx/lib\libc.a(strchr.o)

.data%z52       0x00000000        0x0
 .data          0x00000000        0x0 d:/program files (x86)/microchip/xc32/v1.30/bin/../lib/gcc/pic32mx/4.5.2/../../../../pic32mx/lib\libc.a(strchr.o)

.bss%z53        0x00000000        0x0
 .bss           0x00000000        0x0 d:/program files (x86)/microchip/xc32/v1.30/bin/../lib/gcc/pic32mx/4.5.2/../../../../pic32mx/lib\libc.a(itoa.o)

.data%z54       0x00000000        0x0
 .data          0x00000000        0x0 d:/program files (x86)/microchip/xc32/v1.30/bin/../lib/gcc/pic32mx/4.5.2/../../../../pic32mx/lib\libc.a(itoa.o)

.bss%z55        0x00000000        0x0
 .bss           0x00000000        0x0 d:/program files (x86)/microchip/xc32/v1.30/bin/../lib/gcc/pic32mx/4.5.2/../../../../pic32mx/lib\libc.a(ctype.o)

.data%z56       0x00000000        0x0
 .data          0x00000000        0x0 d:/program files (x86)/microchip/xc32/v1.30/bin/../lib/gcc/pic32mx/4.5.2/../../../../pic32mx/lib\libc.a(ctype.o)

.bss%z57        0x00000000        0x0
 .bss           0x00000000        0x0 d:/program files (x86)/microchip/xc32/v1.30/bin/../lib/gcc/pic32mx/4.5.2/../../../../pic32mx/lib\libc.a(cldiv.o)

.data%z58       0x00000000        0x0
 .data          0x00000000        0x0 d:/program files (x86)/microchip/xc32/v1.30/bin/../lib/gcc/pic32mx/4.5.2/../../../../pic32mx/lib\libc.a(cldiv.o)

.bss%z59        0x00000000        0x0
 .bss           0x00000000        0x0 d:/program files (x86)/microchip/xc32/v1.30/bin/../lib/gcc/pic32mx/4.5.2/../../../../pic32mx/lib\libc.a(atoi.o)

.data%z60       0x00000000        0x0
 .data          0x00000000        0x0 d:/program files (x86)/microchip/xc32/v1.30/bin/../lib/gcc/pic32mx/4.5.2/../../../../pic32mx/lib\libc.a(atoi.o)

.bss%z61        0x00000000        0x0
 .bss           0x00000000        0x0 d:/program files (x86)/microchip/xc32/v1.30/bin/../lib/gcc/pic32mx/4.5.2/../../../../pic32mx/lib\libm.a(fp32.o)

.data%z62       0x00000000        0x0
 .data          0x00000000        0x0 d:/program files (x86)/microchip/xc32/v1.30/bin/../lib/gcc/pic32mx/4.5.2/../../../../pic32mx/lib\libm.a(fp32.o)

.bss%z63        0x00000000        0x0
 .bss           0x00000000        0x0 d:/program files (x86)/microchip/xc32/v1.30/bin/../lib/gcc/pic32mx/4.5.2/../../../../pic32mx/lib\libpic32.a(default-general-exception-handler.o)

.data%z64       0x00000000        0x0
 .data          0x00000000        0x0 d:/program files (x86)/microchip/xc32/v1.30/bin/../lib/gcc/pic32mx/4.5.2/../../../../pic32mx/lib\libpic32.a(default-general-exception-handler.o)

.bss%z65        0x00000000        0x0
 .bss           0x00000000        0x0 d:/program files (x86)/microchip/xc32/v1.30/bin/../lib/gcc/pic32mx/4.5.2/../../../../pic32mx/lib\libpic32.a(general-exception.o)

.data%z66       0x00000000        0x0
 .data          0x00000000        0x0 d:/program files (x86)/microchip/xc32/v1.30/bin/../lib/gcc/pic32mx/4.5.2/../../../../pic32mx/lib\libpic32.a(general-exception.o)

.bss%z67        0x00000000        0x0
 .bss           0x00000000        0x0 d:/program files (x86)/microchip/xc32/v1.30/bin/../lib/gcc/pic32mx/4.5.2/../../../../pic32mx/lib\libpic32.a(pic32_software_reset.o)

.data%z68       0x00000000        0x0
 .data          0x00000000        0x0 d:/program files (x86)/microchip/xc32/v1.30/bin/../lib/gcc/pic32mx/4.5.2/../../../../pic32mx/lib\libpic32.a(pic32_software_reset.o)

.bss%z69        0x00000000        0x0
 .bss           0x00000000        0x0 d:/program files (x86)/microchip/xc32/v1.30/bin/../lib/gcc/pic32mx/4.5.2/../../../../pic32mx/lib\libpic32.a(default-nmi-handler.o)

.data%z70       0x00000000        0x0
 .data          0x00000000        0x0 d:/program files (x86)/microchip/xc32/v1.30/bin/../lib/gcc/pic32mx/4.5.2/../../../../pic32mx/lib\libpic32.a(default-nmi-handler.o)

.bss%z71        0x00000000        0x0
 .bss           0x00000000        0x0 d:/program files (x86)/microchip/xc32/v1.30/bin/../lib/gcc/pic32mx/4.5.2/../../../../pic32mx/lib\libpic32.a(default-on-bootstrap.o)

.data%z72       0x00000000        0x0
 .data          0x00000000        0x0 d:/program files (x86)/microchip/xc32/v1.30/bin/../lib/gcc/pic32mx/4.5.2/../../../../pic32mx/lib\libpic32.a(default-on-bootstrap.o)

.bss%z73        0x00000000        0x0
 .bss           0x00000000        0x0 d:/program files (x86)/microchip/xc32/v1.30/bin/../lib/gcc/pic32mx/4.5.2/../../../../pic32mx/lib\libpic32.a(default-on-reset.o)

.data%z74       0x00000000        0x0
 .data          0x00000000        0x0 d:/program files (x86)/microchip/xc32/v1.30/bin/../lib/gcc/pic32mx/4.5.2/../../../../pic32mx/lib\libpic32.a(default-on-reset.o)

.bss%z75        0x00000000        0x0
 .bss           0x00000000        0x0 d:/program files (x86)/microchip/xc32/v1.30/bin/../lib/gcc/pic32mx/4.5.2/../../../../pic32mx/lib\libpic32.a(default-bootstrap-exception-handler.o)

.data%z76       0x00000000        0x0
 .data          0x00000000        0x0 d:/program files (x86)/microchip/xc32/v1.30/bin/../lib/gcc/pic32mx/4.5.2/../../../../pic32mx/lib\libpic32.a(default-bootstrap-exception-handler.o)

.bss%z77        0x00000000        0x0
 .bss           0x00000000        0x0 d:/program files (x86)/microchip/xc32/v1.30/bin/../lib/gcc/pic32mx/4.5.2/../../../../pic32mx/lib\libpic32.a(strlen.o)

.data%z78       0x00000000        0x0
 .data          0x00000000        0x0 d:/program files (x86)/microchip/xc32/v1.30/bin/../lib/gcc/pic32mx/4.5.2/../../../../pic32mx/lib\libpic32.a(strlen.o)

.bss%z79        0x00000000        0x0
 .bss           0x00000000        0x0 d:/program files (x86)/microchip/xc32/v1.30/bin/../lib/gcc/pic32mx/4.5.2/../../../../pic32mx/lib\libpic32.a(strcpy.o)

.data%z80       0x00000000        0x0
 .data          0x00000000        0x0 d:/program files (x86)/microchip/xc32/v1.30/bin/../lib/gcc/pic32mx/4.5.2/../../../../pic32mx/lib\libpic32.a(strcpy.o)

.bss%z81        0x00000000        0x0
 .bss           0x00000000        0x0 d:/program files (x86)/microchip/xc32/v1.30/bin/../lib/gcc/pic32mx/4.5.2/../../../../pic32mx/lib\libpic32.a(strcmp.o)

.data%z82       0x00000000        0x0
 .data          0x00000000        0x0 d:/program files (x86)/microchip/xc32/v1.30/bin/../lib/gcc/pic32mx/4.5.2/../../../../pic32mx/lib\libpic32.a(strcmp.o)

.bss%z83        0x00000000        0x0
 .bss           0x00000000        0x0 d:/program files (x86)/microchip/xc32/v1.30/bin/../lib/gcc/pic32mx/4.5.2/../../../../pic32mx/lib\libpic32.a(memset.o)

.data%z84       0x00000000        0x0
 .data          0x00000000        0x0 d:/program files (x86)/microchip/xc32/v1.30/bin/../lib/gcc/pic32mx/4.5.2/../../../../pic32mx/lib\libpic32.a(memset.o)

.bss%z85        0x00000000        0x0
 .bss           0x00000000        0x0 d:/program files (x86)/microchip/xc32/v1.30/bin/../lib/gcc/pic32mx/4.5.2/../../../../pic32mx/lib\libpic32.a(memcpy.o)

.data%z86       0x00000000        0x0
 .data          0x00000000        0x0 d:/program files (x86)/microchip/xc32/v1.30/bin/../lib/gcc/pic32mx/4.5.2/../../../../pic32mx/lib\libpic32.a(memcpy.o)

.bss%z87        0x00000000        0x0
 .bss           0x00000000        0x0 d:/program files (x86)/microchip/xc32/v1.30/bin/../lib/gcc/pic32mx/4.5.2/../../../../pic32mx/lib\libpic32.a(memcmp.o)

.data%z88       0x00000000        0x0
 .data          0x00000000        0x0 d:/program files (x86)/microchip/xc32/v1.30/bin/../lib/gcc/pic32mx/4.5.2/../../../../pic32mx/lib\libpic32.a(memcmp.o)

.bss%z89        0x00000000        0x0
 .bss           0x00000000        0x0 d:/program files (x86)/microchip/xc32/v1.30/bin/../lib/gcc/pic32mx/4.5.2\libgcc.a(floatunsisf.o)

.data%z90       0x00000000        0x0
 .data          0x00000000        0x0 d:/program files (x86)/microchip/xc32/v1.30/bin/../lib/gcc/pic32mx/4.5.2\libgcc.a(floatunsisf.o)

.bss%z91        0x00000000        0x0
 .bss           0x00000000        0x0 d:/program files (x86)/microchip/xc32/v1.30/bin/../lib/gcc/pic32mx/4.5.2/../../../../pic32mx/lib\libmchp_peripheral_32MX795F512L.a(I2CPrivate.o)

.data%z92       0x00000000        0x0
 .data          0x00000000        0x0 d:/program files (x86)/microchip/xc32/v1.30/bin/../lib/gcc/pic32mx/4.5.2/../../../../pic32mx/lib\libmchp_peripheral_32MX795F512L.a(I2CPrivate.o)

.bss%z93        0x00000000        0x0
 .bss           0x00000000        0x0 d:/program files (x86)/microchip/xc32/v1.30/bin/../lib/gcc/pic32mx/4.5.2/../../../../pic32mx/lib\libmchp_peripheral_32MX795F512L.a(I2CTransmitterIsReady.o)

.data%z94       0x00000000        0x0
 .data          0x00000000        0x0 d:/program files (x86)/microchip/xc32/v1.30/bin/../lib/gcc/pic32mx/4.5.2/../../../../pic32mx/lib\libmchp_peripheral_32MX795F512L.a(I2CTransmitterIsReady.o)

.bss%z95        0x00000000        0x0
 .bss           0x00000000        0x0 d:/program files (x86)/microchip/xc32/v1.30/bin/../lib/gcc/pic32mx/4.5.2/../../../../pic32mx/lib\libmchp_peripheral_32MX795F512L.a(I2CTransmissionHasCompleted.o)

.data%z96       0x00000000        0x0
 .data          0x00000000        0x0 d:/program files (x86)/microchip/xc32/v1.30/bin/../lib/gcc/pic32mx/4.5.2/../../../../pic32mx/lib\libmchp_peripheral_32MX795F512L.a(I2CTransmissionHasCompleted.o)

.bss%z97        0x00000000        0x0
 .bss           0x00000000        0x0 d:/program files (x86)/microchip/xc32/v1.30/bin/../lib/gcc/pic32mx/4.5.2/../../../../pic32mx/lib\libmchp_peripheral_32MX795F512L.a(I2CStop.o)

.data%z98       0x00000000        0x0
 .data          0x00000000        0x0 d:/program files (x86)/microchip/xc32/v1.30/bin/../lib/gcc/pic32mx/4.5.2/../../../../pic32mx/lib\libmchp_peripheral_32MX795F512L.a(I2CStop.o)

.bss%z99        0x00000000        0x0
 .bss           0x00000000        0x0 d:/program files (x86)/microchip/xc32/v1.30/bin/../lib/gcc/pic32mx/4.5.2/../../../../pic32mx/lib\libmchp_peripheral_32MX795F512L.a(I2CStart.o)

.data%z100      0x00000000        0x0
 .data          0x00000000        0x0 d:/program files (x86)/microchip/xc32/v1.30/bin/../lib/gcc/pic32mx/4.5.2/../../../../pic32mx/lib\libmchp_peripheral_32MX795F512L.a(I2CStart.o)

.bss%z101       0x00000000        0x0
 .bss           0x00000000        0x0 d:/program files (x86)/microchip/xc32/v1.30/bin/../lib/gcc/pic32mx/4.5.2/../../../../pic32mx/lib\libmchp_peripheral_32MX795F512L.a(I2CSetSlaveAddress.o)

.data%z102      0x00000000        0x0
 .data          0x00000000        0x0 d:/program files (x86)/microchip/xc32/v1.30/bin/../lib/gcc/pic32mx/4.5.2/../../../../pic32mx/lib\libmchp_peripheral_32MX795F512L.a(I2CSetSlaveAddress.o)

.bss%z103       0x00000000        0x0
 .bss           0x00000000        0x0 d:/program files (x86)/microchip/xc32/v1.30/bin/../lib/gcc/pic32mx/4.5.2/../../../../pic32mx/lib\libmchp_peripheral_32MX795F512L.a(I2CSetFrequency.o)

.data%z104      0x00000000        0x0
 .data          0x00000000        0x0 d:/program files (x86)/microchip/xc32/v1.30/bin/../lib/gcc/pic32mx/4.5.2/../../../../pic32mx/lib\libmchp_peripheral_32MX795F512L.a(I2CSetFrequency.o)

.bss%z105       0x00000000        0x0
 .bss           0x00000000        0x0 d:/program files (x86)/microchip/xc32/v1.30/bin/../lib/gcc/pic32mx/4.5.2/../../../../pic32mx/lib\libmchp_peripheral_32MX795F512L.a(I2CSendByte.o)

.data%z106      0x00000000        0x0
 .data          0x00000000        0x0 d:/program files (x86)/microchip/xc32/v1.30/bin/../lib/gcc/pic32mx/4.5.2/../../../../pic32mx/lib\libmchp_peripheral_32MX795F512L.a(I2CSendByte.o)

.bss%z107       0x00000000        0x0
 .bss           0x00000000        0x0 d:/program files (x86)/microchip/xc32/v1.30/bin/../lib/gcc/pic32mx/4.5.2/../../../../pic32mx/lib\libmchp_peripheral_32MX795F512L.a(I2CRepeatStart.o)

.data%z108      0x00000000        0x0
 .data          0x00000000        0x0 d:/program files (x86)/microchip/xc32/v1.30/bin/../lib/gcc/pic32mx/4.5.2/../../../../pic32mx/lib\libmchp_peripheral_32MX795F512L.a(I2CRepeatStart.o)

.bss%z109       0x00000000        0x0
 .bss           0x00000000        0x0 d:/program files (x86)/microchip/xc32/v1.30/bin/../lib/gcc/pic32mx/4.5.2/../../../../pic32mx/lib\libmchp_peripheral_32MX795F512L.a(I2CReceiverEnable.o)

.data%z110      0x00000000        0x0
 .data          0x00000000        0x0 d:/program files (x86)/microchip/xc32/v1.30/bin/../lib/gcc/pic32mx/4.5.2/../../../../pic32mx/lib\libmchp_peripheral_32MX795F512L.a(I2CReceiverEnable.o)

.bss%z111       0x00000000        0x0
 .bss           0x00000000        0x0 d:/program files (x86)/microchip/xc32/v1.30/bin/../lib/gcc/pic32mx/4.5.2/../../../../pic32mx/lib\libmchp_peripheral_32MX795F512L.a(I2CReceivedDataIsAvailable.o)

.data%z112      0x00000000        0x0
 .data          0x00000000        0x0 d:/program files (x86)/microchip/xc32/v1.30/bin/../lib/gcc/pic32mx/4.5.2/../../../../pic32mx/lib\libmchp_peripheral_32MX795F512L.a(I2CReceivedDataIsAvailable.o)

.bss%z113       0x00000000        0x0
 .bss           0x00000000        0x0 d:/program files (x86)/microchip/xc32/v1.30/bin/../lib/gcc/pic32mx/4.5.2/../../../../pic32mx/lib\libmchp_peripheral_32MX795F512L.a(I2CGetStatus.o)

.data%z114      0x00000000        0x0
 .data          0x00000000        0x0 d:/program files (x86)/microchip/xc32/v1.30/bin/../lib/gcc/pic32mx/4.5.2/../../../../pic32mx/lib\libmchp_peripheral_32MX795F512L.a(I2CGetStatus.o)

.bss%z115       0x00000000        0x0
 .bss           0x00000000        0x0 d:/program files (x86)/microchip/xc32/v1.30/bin/../lib/gcc/pic32mx/4.5.2/../../../../pic32mx/lib\libmchp_peripheral_32MX795F512L.a(I2CGetByte.o)

.data%z116      0x00000000        0x0
 .data          0x00000000        0x0 d:/program files (x86)/microchip/xc32/v1.30/bin/../lib/gcc/pic32mx/4.5.2/../../../../pic32mx/lib\libmchp_peripheral_32MX795F512L.a(I2CGetByte.o)

.bss%z117       0x00000000        0x0
 .bss           0x00000000        0x0 d:/program files (x86)/microchip/xc32/v1.30/bin/../lib/gcc/pic32mx/4.5.2/../../../../pic32mx/lib\libmchp_peripheral_32MX795F512L.a(I2CEnable.o)

.data%z118      0x00000000        0x0
 .data          0x00000000        0x0 d:/program files (x86)/microchip/xc32/v1.30/bin/../lib/gcc/pic32mx/4.5.2/../../../../pic32mx/lib\libmchp_peripheral_32MX795F512L.a(I2CEnable.o)

.bss%z119       0x00000000        0x0
 .bss           0x00000000        0x0 d:/program files (x86)/microchip/xc32/v1.30/bin/../lib/gcc/pic32mx/4.5.2/../../../../pic32mx/lib\libmchp_peripheral_32MX795F512L.a(I2CConfigure.o)

.data%z120      0x00000000        0x0
 .data          0x00000000        0x0 d:/program files (x86)/microchip/xc32/v1.30/bin/../lib/gcc/pic32mx/4.5.2/../../../../pic32mx/lib\libmchp_peripheral_32MX795F512L.a(I2CConfigure.o)

.bss%z121       0x00000000        0x0
 .bss           0x00000000        0x0 d:/program files (x86)/microchip/xc32/v1.30/bin/../lib/gcc/pic32mx/4.5.2/../../../../pic32mx/lib\libmchp_peripheral_32MX795F512L.a(I2CByteWasAcknowledged.o)

.data%z122      0x00000000        0x0
 .data          0x00000000        0x0 d:/program files (x86)/microchip/xc32/v1.30/bin/../lib/gcc/pic32mx/4.5.2/../../../../pic32mx/lib\libmchp_peripheral_32MX795F512L.a(I2CByteWasAcknowledged.o)

.bss%z123       0x00000000        0x0
 .bss           0x00000000        0x0 d:/program files (x86)/microchip/xc32/v1.30/bin/../lib/gcc/pic32mx/4.5.2/../../../../pic32mx/lib\libmchp_peripheral_32MX795F512L.a(I2CBusIsIdle.o)

.data%z124      0x00000000        0x0
 .data          0x00000000        0x0 d:/program files (x86)/microchip/xc32/v1.30/bin/../lib/gcc/pic32mx/4.5.2/../../../../pic32mx/lib\libmchp_peripheral_32MX795F512L.a(I2CBusIsIdle.o)

.bss%z125       0x00000000        0x0
 .bss           0x00000000        0x0 d:/program files (x86)/microchip/xc32/v1.30/bin/../lib/gcc/pic32mx/4.5.2/../../../../pic32mx/lib\libmchp_peripheral_32MX795F512L.a(master_write_i2c2_lib_legacy.o)

.data%z126      0x00000000        0x0
 .data          0x00000000        0x0 d:/program files (x86)/microchip/xc32/v1.30/bin/../lib/gcc/pic32mx/4.5.2/../../../../pic32mx/lib\libmchp_peripheral_32MX795F512L.a(master_write_i2c2_lib_legacy.o)

.bss%z127       0x00000000        0x0
 .bss           0x00000000        0x0 d:/program files (x86)/microchip/xc32/v1.30/bin/../lib/gcc/pic32mx/4.5.2/../../../../pic32mx/lib\libmchp_peripheral_32MX795F512L.a(master_read_i2c2_lib_legacy.o)

.data%z128      0x00000000        0x0
 .data          0x00000000        0x0 d:/program files (x86)/microchip/xc32/v1.30/bin/../lib/gcc/pic32mx/4.5.2/../../../../pic32mx/lib\libmchp_peripheral_32MX795F512L.a(master_read_i2c2_lib_legacy.o)

.bss%z129       0x00000000        0x0
 .bss           0x00000000        0x0 d:/program files (x86)/microchip/xc32/v1.30/bin/../lib/gcc/pic32mx/4.5.2/../../../../pic32mx/lib\libmchp_peripheral_32MX795F512L.a(idle_i2c2_lib_legacy.o)

.data%z130      0x00000000        0x0
 .data          0x00000000        0x0 d:/program files (x86)/microchip/xc32/v1.30/bin/../lib/gcc/pic32mx/4.5.2/../../../../pic32mx/lib\libmchp_peripheral_32MX795F512L.a(idle_i2c2_lib_legacy.o)

.bss%z131       0x00000000        0x0
 .bss           0x00000000        0x0 d:/program files (x86)/microchip/xc32/v1.30/bin/../lib/gcc/pic32mx/4.5.2/../../../../pic32mx/lib\libmchp_peripheral_32MX795F512L.a(uart_lib.o)

.data%z132      0x00000000        0x0
 .data          0x00000000        0x0 d:/program files (x86)/microchip/xc32/v1.30/bin/../lib/gcc/pic32mx/4.5.2/../../../../pic32mx/lib\libmchp_peripheral_32MX795F512L.a(uart_lib.o)

.bss%z133       0x00000000        0x0
 .bss           0x00000000        0x0 d:/program files (x86)/microchip/xc32/v1.30/bin/../lib/gcc/pic32mx/4.5.2/../../../../pic32mx/lib\libmchp_peripheral_32MX795F512L.a(_ports_tbl_libp.o)

.data%z134      0x00000000        0x0
 .data          0x00000000        0x0 d:/program files (x86)/microchip/xc32/v1.30/bin/../lib/gcc/pic32mx/4.5.2/../../../../pic32mx/lib\libmchp_peripheral_32MX795F512L.a(_ports_tbl_libp.o)

.bss%z135       0x00000000        0x0
 .bss           0x00000000        0x0 d:/program files (x86)/microchip/xc32/v1.30/bin/../lib/gcc/pic32mx/4.5.2/../../../../pic32mx/lib\libmchp_peripheral_32MX795F512L.a(port_set_pins_digital_out_lib.o)

.data%z136      0x00000000        0x0
 .data          0x00000000        0x0 d:/program files (x86)/microchip/xc32/v1.30/bin/../lib/gcc/pic32mx/4.5.2/../../../../pic32mx/lib\libmchp_peripheral_32MX795F512L.a(port_set_pins_digital_out_lib.o)

.bss%z137       0x00000000        0x0
 .bss           0x00000000        0x0 d:/program files (x86)/microchip/xc32/v1.30/bin/../lib/gcc/pic32mx/4.5.2/../../../../pic32mx/lib\libmchp_peripheral_32MX795F512L.a(port_set_pins_digital_in_lib.o)

.data%z138      0x00000000        0x0
 .data          0x00000000        0x0 d:/program files (x86)/microchip/xc32/v1.30/bin/../lib/gcc/pic32mx/4.5.2/../../../../pic32mx/lib\libmchp_peripheral_32MX795F512L.a(port_set_pins_digital_in_lib.o)

.bss%z139       0x00000000        0x0
 .bss           0x00000000        0x0 d:/program files (x86)/microchip/xc32/v1.30/bin/../lib/gcc/pic32mx/4.5.2/../../../../pic32mx/lib\libmchp_peripheral_32MX795F512L.a(int_tbl_lib.o)

.data%z140      0x00000000        0x0
 .data          0x00000000        0x0 d:/program files (x86)/microchip/xc32/v1.30/bin/../lib/gcc/pic32mx/4.5.2/../../../../pic32mx/lib\libmchp_peripheral_32MX795F512L.a(int_tbl_lib.o)

.bss%z141       0x00000000        0x0
 .bss           0x00000000        0x0 d:/program files (x86)/microchip/xc32/v1.30/bin/../lib/gcc/pic32mx/4.5.2/../../../../pic32mx/lib\libmchp_peripheral_32MX795F512L.a(int_restore_interrupts_lib.o)

.data%z142      0x00000000        0x0
 .data          0x00000000        0x0 d:/program files (x86)/microchip/xc32/v1.30/bin/../lib/gcc/pic32mx/4.5.2/../../../../pic32mx/lib\libmchp_peripheral_32MX795F512L.a(int_restore_interrupts_lib.o)

.bss%z143       0x00000000        0x0
 .bss           0x00000000        0x0 d:/program files (x86)/microchip/xc32/v1.30/bin/../lib/gcc/pic32mx/4.5.2/../../../../pic32mx/lib\libmchp_peripheral_32MX795F512L.a(int_disable_interrupts_lib.o)

.data%z144      0x00000000        0x0
 .data          0x00000000        0x0 d:/program files (x86)/microchip/xc32/v1.30/bin/../lib/gcc/pic32mx/4.5.2/../../../../pic32mx/lib\libmchp_peripheral_32MX795F512L.a(int_disable_interrupts_lib.o)

.bss%z145       0x00000000        0x0
 .bss           0x00000000        0x0 d:/program files (x86)/microchip/xc32/v1.30/bin/../lib/gcc/pic32mx/4.5.2/../../../../pic32mx/lib\libmchp_peripheral_32MX795F512L.a(int_enable_interrupts_lib.o)

.data%z146      0x00000000        0x0
 .data          0x00000000        0x0 d:/program files (x86)/microchip/xc32/v1.30/bin/../lib/gcc/pic32mx/4.5.2/../../../../pic32mx/lib\libmchp_peripheral_32MX795F512L.a(int_enable_interrupts_lib.o)

.bss%z147       0x00000000        0x0
 .bss           0x00000000        0x0 d:/program files (x86)/microchip/xc32/v1.30/bin/../lib/gcc/pic32mx/4.5.2/../../../../pic32mx/lib\libmchp_peripheral_32MX795F512L.a(int_configure_system_lib.o)

.data%z148      0x00000000        0x0
 .data          0x00000000        0x0 d:/program files (x86)/microchip/xc32/v1.30/bin/../lib/gcc/pic32mx/4.5.2/../../../../pic32mx/lib\libmchp_peripheral_32MX795F512L.a(int_configure_system_lib.o)

.bss%z149       0x00000000        0x0
 .bss           0x00000000        0x0 d:/program files (x86)/microchip/xc32/v1.30/bin/../lib/gcc/pic32mx/4.5.2/../../../../pic32mx/lib\libmchp_peripheral_32MX795F512L.a(pcache.o)

.data%z150      0x00000000        0x0
 .data          0x00000000        0x0 d:/program files (x86)/microchip/xc32/v1.30/bin/../lib/gcc/pic32mx/4.5.2/../../../../pic32mx/lib\libmchp_peripheral_32MX795F512L.a(pcache.o)

.bss%z151       0x00000000        0x0
 .bss           0x00000000        0x0 d:/program files (x86)/microchip/xc32/v1.30/bin/../lib/gcc/pic32mx/4.5.2/../../../../pic32mx/lib\libmchp_peripheral.a(update_core_timer_lib.o)

.data%z152      0x00000000        0x0
 .data          0x00000000        0x0 d:/program files (x86)/microchip/xc32/v1.30/bin/../lib/gcc/pic32mx/4.5.2/../../../../pic32mx/lib\libmchp_peripheral.a(update_core_timer_lib.o)

.bss%z153       0x00000000        0x0
 .bss           0x00000000        0x0 d:/program files (x86)/microchip/xc32/v1.30/bin/../lib/gcc/pic32mx/4.5.2/../../../../pic32mx/lib\libmchp_peripheral.a(open_core_timer_lib.o)

.data%z154      0x00000000        0x0
 .data          0x00000000        0x0 d:/program files (x86)/microchip/xc32/v1.30/bin/../lib/gcc/pic32mx/4.5.2/../../../../pic32mx/lib\libmchp_peripheral.a(open_core_timer_lib.o)

.bss%z155       0x00000000        0x0
 .bss           0x00000000        0x0 d:/program files (x86)/microchip/xc32/v1.30/bin/../lib/gcc/pic32mx/4.5.2/../../../../pic32mx/lib/./proc/32MX795F512L\processor.o

.data%z156      0x00000000        0x0
 .data          0x00000000        0x0 d:/program files (x86)/microchip/xc32/v1.30/bin/../lib/gcc/pic32mx/4.5.2/../../../../pic32mx/lib/./proc/32MX795F512L\processor.o

.bss%z157       0x00000000        0x0
 .bss           0x00000000        0x0 build/default/production/_ext/1246622842/gas_log_sp.o

.data%z158      0x00000000        0x0
 .data          0x00000000        0x0 build/default/production/_ext/1246622842/gas_log_sp.o

.bss%z159       0x00000000        0x0
 .bss           0x00000000        0x0 build/default/production/_ext/1246622842/gas_log.o

.data%z160      0x00000000        0x0
 .data          0x00000000        0x0 build/default/production/_ext/1246622842/gas_log.o

.data%z161      0x00000000        0x0
 .data          0x00000000        0x0 build/default/production/_ext/1246622842/uart.o

.bss%z162       0x00000000        0x0
 .bss           0x00000000        0x0 build/default/production/_ext/1246622842/TempDetection.o

.data%z163      0x00000000        0x0
 .data          0x00000000        0x0 build/default/production/_ext/1246622842/TempDetection.o

.bss%z164       0x00000000        0x0
 .bss           0x00000000        0x0 build/default/production/_ext/1218090624/sysset.o

.data%z165      0x00000000        0x0
 .data          0x00000000        0x0 build/default/production/_ext/1218090624/sysset.o

.bss%z166       0x00000000        0x0
 .bss           0x00000000        0x0 build/default/production/_ext/1218090624/store.o

.data%z167      0x00000000        0x0
 .data          0x00000000        0x0 build/default/production/_ext/1218090624/store.o

.bss%z168       0x00000000        0x0
 .bss           0x00000000        0x0 build/default/production/_ext/1246622842/soe.o

.data%z169      0x00000000        0x0
 .data          0x00000000        0x0 build/default/production/_ext/1246622842/soe.o

.bss%z170       0x00000000        0x0
 .bss           0x00000000        0x0 build/default/production/_ext/1218090624/sign.o

.data%z171      0x00000000        0x0
 .data          0x00000000        0x0 build/default/production/_ext/1218090624/sign.o

.bss%z172       0x00000000        0x0
 .bss           0x00000000        0x0 build/default/production/_ext/1246622842/qry.o

.data%z173      0x00000000        0x0
 .data          0x00000000        0x0 build/default/production/_ext/1246622842/qry.o

.bss%z174       0x00000000        0x0
 .bss           0x00000000        0x0 build/default/production/_ext/1246622842/print.o

.data%z175      0x00000000        0x0
 .data          0x00000000        0x0 build/default/production/_ext/1246622842/print.o

.bss%z176       0x00000000        0x0
 .bss           0x00000000        0x0 build/default/production/_ext/1246622842/nand.o

.data%z177      0x00000000        0x0
 .data          0x00000000        0x0 build/default/production/_ext/1246622842/nand.o

.bss%z178       0x00000000        0x0
 .bss           0x00000000        0x0 build/default/production/_ext/1218090624/module_test.o

.data%z179      0x00000000        0x0
 .data          0x00000000        0x0 build/default/production/_ext/1218090624/module_test.o

.bss%z180       0x00000000        0x0
 .bss           0x00000000        0x0 build/default/production/_ext/1218090624/main_ui.o

.data%z181      0x00000000        0x0
 .data          0x00000000        0x0 build/default/production/_ext/1218090624/main_ui.o

.bss%z182       0x00000000        0x0
 .bss           0x00000000        0x0 build/default/production/_ext/1218090624/main.o

.data%z183      0x00000000        0x0
 .data          0x00000000        0x0 build/default/production/_ext/1218090624/main.o

.bss%z184       0x00000000        0x0
 .bss           0x00000000        0x0 build/default/production/_ext/1246622842/lngdebug.o

.bss%z185       0x00000000        0x0
 .bss           0x00000000        0x0 build/default/production/_ext/1246622842/lngctrl.o

.data%z186      0x00000000        0x0
 .data          0x00000000        0x0 build/default/production/_ext/1246622842/lngctrl.o

.bss%z187       0x00000000        0x0
 .bss           0x00000000        0x0 build/default/production/_ext/1246622842/lcd.o

.data%z188      0x00000000        0x0
 .data          0x00000000        0x0 build/default/production/_ext/1246622842/lcd.o

.bss%z189       0x00000000        0x0
 .bss           0x00000000        0x0 build/default/production/_ext/1246622842/key.o

.data%z190      0x00000000        0x0
 .data          0x00000000        0x0 build/default/production/_ext/1246622842/key.o

.bss%z191       0x00000000        0x0
 .bss           0x00000000        0x0 build/default/production/_ext/1218090624/kernel.o

.data%z192      0x00000000        0x0
 .data          0x00000000        0x0 build/default/production/_ext/1218090624/kernel.o

.bss%z193       0x00000000        0x0
 .bss           0x00000000        0x0 build/default/production/_ext/1218090624/init.o

.data%z194      0x00000000        0x0
 .data          0x00000000        0x0 build/default/production/_ext/1218090624/init.o

.bss%z195       0x00000000        0x0
 .bss           0x00000000        0x0 build/default/production/_ext/1246622842/iic.o

.data%z196      0x00000000        0x0
 .data          0x00000000        0x0 build/default/production/_ext/1246622842/iic.o

.bss%z197       0x00000000        0x0
 .bss           0x00000000        0x0 build/default/production/_ext/1246622842/disp.o

.bss%z198       0x00000000        0x0
 .bss           0x00000000        0x0 build/default/production/_ext/1246622842/des.o

.bss%z199       0x00000000        0x0
 .bss           0x00000000        0x0 build/default/production/_ext/1246622842/company.o

.data%z200      0x00000000        0x0
 .data          0x00000000        0x0 build/default/production/_ext/1246622842/company.o

.bss%z201       0x00000000        0x0
 .bss           0x00000000        0x0 build/default/production/_ext/1246622842/clock.o

.data%z202      0x00000000        0x0
 .data          0x00000000        0x0 build/default/production/_ext/1246622842/clock.o

.bss%z203       0x00000000        0x0
 .bss           0x00000000        0x0 build/default/production/_ext/1246622842/buzzer.o

.data%z204      0x00000000        0x0
 .data          0x00000000        0x0 build/default/production/_ext/1246622842/buzzer.o

.bss%z205       0x00000000        0x0
 .bss           0x00000000        0x0 build/default/production/_ext/1246622842/25vfxxx.o

.data%z206      0x00000000        0x0
 .data          0x00000000        0x0 build/default/production/_ext/1246622842/25vfxxx.o

.bss%z207       0x00000000        0x0
 .bss           0x00000000        0x0 build/default/production/_ext/1246622842/24lcxxx.o

.data%z208      0x00000000        0x0
 .data          0x00000000        0x0 build/default/production/_ext/1246622842/24lcxxx.o

.bss%z209       0x00000000        0x0
 .bss           0x00000000        0x0 d:/program files (x86)/microchip/xc32/v1.30/bin/../lib/gcc/pic32mx/4.5.2/../../../../pic32mx/lib/./proc/32MX795F512L/crt0_mips32r2.o

.data%z210      0x00000000        0x0
 .data          0x00000000        0x0 d:/program files (x86)/microchip/xc32/v1.30/bin/../lib/gcc/pic32mx/4.5.2/../../../../pic32mx/lib/./proc/32MX795F512L/crt0_mips32r2.o

.text           0x9d004490    0x407a4
 .text          0x9d004490     0xf084 build/default/production/_ext/1218090624/sysset.o
                0x9d004490                oset_price
                0x9d004688                oset_price2
                0x9d0048a0                oset_price3
                0x9d004ab8                oset_price4
                0x9d004cd0                oset_price5
                0x9d004ee8                oset_price6
                0x9d005100                oset_price7
                0x9d005318                oset_price8
                0x9d005530                oset_price9
                0x9d005748                oset_price10
                0x9d005960                oset_machine_id
                0x9d005b34                oset_sysdatatime
                0x9d005ca8                oset_systime
                0x9d005dfc                oset_precool_temp
                0x9d006098                oset_precool_gain
                0x9d006294                oset_lngEndR
                0x9d0064ac                oset_glbh
                0x9d0066c4                oset_smallzxjqe
                0x9d006a20                oset_djxs
                0x9d006cb0                oset_lsyspd
                0x9d007564                oset_qxsz
                0x9d007e40                oset_lngEndP
                0x9d007fb8                oset_system_ui
                0x9d008030                oset_init_str_chk
                0x9d0080b0                oclear_class
                0x9d0081bc                oset_system
                0x9d008310                SET_HARD_VER
                0x9d0088a0                Debud_record_clrAll_psw
                0x9d008f2c                vctrl_test_psw
                0x9d0094c8                systemclr_psw
                0x9d009b58                Clr_debudjilu_die
                0x9d009c6c                systemclr
                0x9d009d10                oset_system_data_chk
                0x9d009d38                init_eeprom_shift_info
                0x9d009df8                oset_system_get_max_rec_id
                0x9d009eb4                oset_system_get_max_login_id
                0x9d009f88                oset_system_get_max_shift_id
                0x9d009fa8                oset_system_get_max_para_id
                0x9d00a0e8                osysparas_set_ui_p1
                0x9d00a190                osysparas_set_ui_p2
                0x9d00a208                osysparas_set_ui_switch
                0x9d00a274                oset_team_ma
                0x9d00a2ec                omenu_team_modipw
                0x9d00a364                omenu_car_modipw
                0x9d00a3c4                omenu_team_addclass
                0x9d00a43c                omenu_team_delclass
                0x9d00a4b4                oset_team_modi
                0x9d00aa14                oset_team_cardmm
                0x9d00acbc                oset_team_add
                0x9d00b0f4                oset_team_del
                0x9d00b53c                oset_sys_ma1
                0x9d00b5e4                oset_sys_ma2
                0x9d00b68c                oset_sys_ma3
                0x9d00b734                osys_set_ui_switch
                0x9d00b7c0                oset_precool_ma1
                0x9d00b868                oset_precool_ma2
                0x9d00b910                oprecool_set_ui_switch
                0x9d00b97c                oprecool_cs_ui_switch
                0x9d00b9e8                oset_pricex_ma1
                0x9d00ba90                oset_pricex_ma2
                0x9d00bb38                oset_pricex_ma3
                0x9d00bbb0                opricex_set_ui_switch
                0x9d00bc3c                oset_tj_ma
                0x9d00bc9c                oset_tj_minif
                0x9d00bee8                oset_tj_minim
                0x9d00c14c                oset_Ls_set_ma
                0x9d00c1f4                oset_Ls_set_ma2
                0x9d00c29c                oset_Pressure_ma
                0x9d00c32c                oset_syschk_ma1
                0x9d00c3d4                oset_syschk_ma2
                0x9d00c47c                oset_syschk_ma3
                0x9d00c4f4                osyschk_set_ui_switch
                0x9d00c580                oset_sysset_power
                0x9d00c610                in_xlh
                0x9d00cd5c                oset_zkset
                0x9d00cfc0                oset_hqset
                0x9d00d224                oset_mini_set
                0x9d00d5ec                oset_gassset
                0x9d00d850                oset_sysset_print
                0x9d00da50                oset_sysset_aerad
                0x9d00daa8                waitexit
                0x9d00db1c                oset_sysset_prezero
                0x9d00dd1c                oset_sysset_precur
                0x9d00df1c                oset_sysset_safetypre
                0x9d00e128                oset_sysset_ReferVoltage
                0x9d00e3d8                oset_Density_up
                0x9d00e5e0                oset_Density_down
                0x9d00e8e0                omodule_clock_test
                0x9d00e940                omodule_tx_test
                0x9d00e9a0                oset_getclassxx
                0x9d00ea58                oset_tmpeAdd
                0x9d00ec50                oset_arcewait
                0x9d00ee48                oset_MinorCycleSucced_delay
                0x9d00f034                oset_MajorCycleSucced_delay
                0x9d00f220                oset_precool_delay
                0x9d00f4b4                oset_relaytime
                0x9d00f6d8                oset_statonno
                0x9d00f8d8                oset_keysound
                0x9d00facc                oset_curflow
                0x9d00fd88                oset_sysdate
                0x9d00fedc                para_sav
                0x9d010074                oset_clrsav
                0x9d010260                oset_simrec
                0x9d010424                Save_QxSet_Bit
                0x9d0104fc                oset_sysset_wk
                0x9d010720                oset_zttzset
                0x9d0109b4                oset_zxjqe
                0x9d010d10                Select_YorNo
                0x9d010dcc                oset_wdcsset
                0x9d011118                oset_jrset
                0x9d01161c                Sys_Input_Cp
                0x9d011764                oset_wdbjset
                0x9d0119e0                oset_fdelay
                0x9d011c54                strtoint
                0x9d011f5c                oset_stotal
                0x9d0126d8                oset_qtotal
                0x9d012e3c                oset_curflowbz
 .text          0x9d013514     0xd548 build/default/production/_ext/1246622842/company.o
                0x9d013514                omodbus_crc16
                0x9d013618                send_zh_state
                0x9d013720                send_ack
                0x9d013818                send_ack_sj
                0x9d013910                send_nck
                0x9d013a08                ocom_send_heareat
                0x9d013cbc                company_Answer
                0x9d013d50                ocompany_precool_start
                0x9d013f54                ocompany_precool_ok
                0x9d013fdc                ocompany_precool_timeover
                0x9d014044                ocompany_precool_stop
                0x9d014218                ocompany_car_verify
                0x9d0144b0                ocompany_gass_quan
                0x9d014764                ocompany_gass_noquan
                0x9d014a18                ocompany_gass_amount
                0x9d014ccc                ocompany_getgass
                0x9d014df0                ocompany_gass_ok
                0x9d014e78                ocompany_gass_stop
                0x9d015074                ocompany_precool_getstate
                0x9d0153fc                ocompany_compack
                0x9d0156b0                ocompany_set_uint
                0x9d015950                Set_price
                0x9d0159c0                Set_price2
                0x9d015a3c                Set_gaswait
                0x9d015aac                Set_precool_delay
                0x9d015b1c                Set_Density_down
                0x9d015b8c                Set_Density_up
                0x9d015bfc                Set_pre_temp
                0x9d015c6c                Set_gain
                0x9d015cdc                Set_curflow
                0x9d015d4c                Set_machineid
                0x9d015dbc                defConfig
                0x9d015e1c                Sysclear
                0x9d015e7c                Set_pressure
                0x9d015ee8                Set_ReferVoltage
                0x9d015f54                Set_zeropressure
                0x9d015fc0                Set_xzcs
                0x9d016030                Set_pressurejzxs
                0x9d01609c                Set_lngEndR
                0x9d01610c                Set_glbh
                0x9d01617c                Set_lspd
                0x9d0161ec                Set_MinCycleDelay
                0x9d01625c                Set_MajCycleDelay
                0x9d0162cc                qty_get_rec
                0x9d016588                qty_get_serrec
                0x9d01694c                qty_get_resetinfo
                0x9d016bfc                qty_get_mod
                0x9d016f58                Shift_join
                0x9d017300                ocompany_duishi_jpzhu
                0x9d01757c                TB_Send_YG
                0x9d0178ac                off_work
                0x9d017cd4                ocompany_shift_ok
                0x9d017d58                Set_fdelay
                0x9d017dc8                ocompany_offwork_ok
                0x9d017e4c                ocompany_Handshake
                0x9d018018                Send_SOE_State
                0x9d018180                qty_get_sys
                0x9d018438                qty_get_pricex
                0x9d01886c                qty_get_gid
                0x9d018b0c                qty_get_l_mod
                0x9d018ebc                qty_get_g_mod
                0x9d01926c                qty_get_shift
                0x9d01950c                qty_get_yl
                0x9d0197ac                module_vctrl_start
                0x9d0199a8                module_vctrl_quit
                0x9d019ba4                module_vctrl
                0x9d019e18                module_vctrl_pump_sw
                0x9d01a13c                Set_qtotal
                0x9d01a1b0                Set_stotal
                0x9d01a220                Set_curflowbz
                0x9d01a290                qty_get_shiftls
                0x9d01a530                qty_get_zdls
                0x9d01a7d0                get_ModuleSave
                0x9d01aa98                module_dispLcd_test
                0x9d01ac94                Clear_modbus
                0x9d01af60                Buff_modbus
                0x9d01b234                get_press
                0x9d01b42c                Gets_SumandPress_start
                0x9d01b72c                Ocompany_GetGas_REC
                0x9d01bac0                qty_get_zhanhao
                0x9d01bdb0                qty_get_sw
                0x9d01c058                qty_get_xz
                0x9d01c318                ocompany_zanhao_verify
                0x9d01c564                ocompany_relay_set
                0x9d01c7ac                Get_ZiCard_info
                0x9d01cb68                Check_Card_info
                0x9d01cee0                Ocompany_Gas_noquan_start
                0x9d01d204                Ocompany_Gas_noquan_run
                0x9d01db64                Ocompany_Gas_noquan_stop
                0x9d01dde4                Ocompany_Gas_noquan_finish
                0x9d01e248                Ocompany_Gas_Quan_start
                0x9d01e564                Ocompany_Gas_Quan_run
                0x9d01eb3c                err_ts
                0x9d01eccc                Ocompany_stop
                0x9d01ee58                Ocompany_Gas_Quan_stop
                0x9d01f0d4                Ocompany_Gas_Quan_finish
                0x9d01f538                down_get_password
                0x9d01f810                Ocompany_Gas_Qz
                0x9d01fa84                Configure_company
                0x9d01faf4                Card_Verif
                0x9d01fe58                qty_get_jlerr
                0x9d020300                ocompany_send_daxs
                0x9d020548                ocompany_port_init
                0x9d020620                Company_sendstr
                0x9d02069c                IntUart2Handler
 .text          0x9d020a5c     0xcdb0 build/default/production/_ext/1246622842/lngctrl.o
                0x9d020a5c                Gas_para_init
                0x9d020bb0                deg_operate_save_begi
                0x9d020cec                deg_operate_save_gasing
                0x9d020d5c                deg_operate_save_end
                0x9d020de0                olng_operate_fixv
                0x9d021120                olng_operate_fixm
                0x9d021318                get_price
                0x9d0213ac                IC_card_put_grey_status
                0x9d021468                olng_LNG_Operate
                0x9d024350                olng_start_act
                0x9d026e68                olng_operate_Isadd
                0x9d027e50                Select_print
                0x9d027fac                gas_finish
                0x9d029004                olng_operate_disp
                0x9d029120                olng_operate_disp2
                0x9d0291ac                show_operat_stop
                0x9d029234                olng_operate_put_card
                0x9d029b64                offwork_print
                0x9d02a210                oprint_qry_easy_rec
                0x9d02a648                oprint_operate_rec
                0x9d02ad1c                oprint_operate_recact
                0x9d02b0a0                Get_gas_money
                0x9d02b310                Judge_sct_Minimum
                0x9d02b9ec                Get_again_gas_money
                0x9d02bc60                olngctrl_juPSW
                0x9d02c490                Get_Gp_Time
                0x9d02c798                CalcPCTimeAndLNGTime
                0x9d02ca6c                mktimesec
                0x9d02cb90                Get_zk
                0x9d02cd60                get_car_info
                0x9d02cf78                ic_conv_un_lj
                0x9d02d1fc                oprint_qry_to_rec
 .text          0x9d02d80c     0x70a0 build/default/production/_ext/1246622842/ic_card.o
                0x9d02d80c                Mainui_Disp_Cardinfo
                0x9d02da64                Get_Cardpsw
                0x9d02db78                Save_cardpsw
                0x9d02dd54                Check_Set_Pws_Data
                0x9d02e2b8                oGet_Sta_Cardpsw
                0x9d02e954                process_apdu_reponse
                0x9d02ed04                ic_card_active_sp
                0x9d02ed40                ic_card_dece_sp
                0x9d02ee04                ic_card_init
                0x9d02ef18                machine_has_card
                0x9d02efe4                machine_status_card
                0x9d02f4f8                ic_card_readbin_selmu
                0x9d02f628                card_writebin_selmu
                0x9d02f7d8                ic_operate_info
                0x9d02f8f0                ic_operate_info_int
                0x9d02fb1c                GetCard_info
                0x9d02fcbc                oqry_downpass
                0x9d02fddc                card_get_cstype
                0x9d02fec8                oqry_cardinfo
                0x9d031298                ic_card_get_info
                0x9d03137c                ic_card_get_info_nosel
                0x9d03144c                ic_card_get_money
                0x9d031514                ic_card_Direct_get_money
                0x9d03165c                inttoa
                0x9d031858                ic_card_put_money
                0x9d031adc                ic_card_get_gass
                0x9d031ba4                ic_card_Direct_get_gass
                0x9d031cec                ic_card_put_gass
                0x9d031f70                ic_card_get_password
                0x9d032034                ic_card_put_password
                0x9d0320fc                ic_card_get_status
                0x9d032240                ic_card_get_status_nosel
                0x9d032364                ic_card_put_status
                0x9d032484                ic_card_put_info
                0x9d032588                ic_card_get_type
                0x9d03273c                ReadCard_info
                0x9d032ea8                olng_operate_card
                0x9d032f14                card_getchal
                0x9d033028                external_authentication
                0x9d033218                Car_Experimental
                0x9d0332f8                omodule_ic_test
                0x9d0334c4                Get_pr
                0x9d0335f4                Get_Car_Info
 .text          0x9d0348ac     0x348c build/default/production/_ext/1246622842/soe.o
                0x9d0348ac                Save_Qx_Runtime
                0x9d034980                Sava_Sys_Runtime
                0x9d034a54                Get_Qx_Runtime
                0x9d034a98                Get_Sys_Runtime
                0x9d034adc                ClearNameStation
                0x9d034b0c                ClearSysRuntime
                0x9d034bd0                SOEACTION2
                0x9d034c04                SOEACTION1
                0x9d0355a0                SOEACTION
                0x9d0356d0                AddSOE
                0x9d035a4c                Get_max_soe_id
                0x9d035aa4                Get_max_reset_id
                0x9d035afc                SOE_DELEALL
                0x9d035c40                oqry_soerec
                0x9d035dec                oqry_reset_info
                0x9d035fec                oqry_key_reset
                0x9d0361d8                Qry_Soerec_Disp
                0x9d03642c                Qry_Resetrec_Disp
                0x9d03669c                car_disp
 .text          0x9d037d38     0x3428 build/default/production/_ext/1246622842/qry.o
                0x9d037d38                getatof
                0x9d037d74                getatoi
                0x9d037db4                qry_debug_rec_disp
                0x9d037f98                oqry_rec_disp
                0x9d038354                oqry_reset_disp
                0x9d0385dc                oqry_rec
                0x9d038678                oqry_liushui_typerec
                0x9d0386d8                oqry_liushuirec
                0x9d0388d4                oqry_Debug_liushuirec
                0x9d038a68                get_max_rec_id
                0x9d038ad4                oqry_searchliushuirec
                0x9d038d74                oqry_shift_disp
                0x9d038f3c                oqry_rec_ex
                0x9d038f5c                putclassxx
                0x9d0390c4                oqry_shift_iofo
                0x9d039238                oqry_system
                0x9d039b1c                oqry_cardinfo_ui_p1
                0x9d039b3c                oqry_cardinfo_ui_p2
                0x9d039b5c                oqry_cardinfo_ui_p3
                0x9d039b7c                oqry_switch
                0x9d039c08                oqry_switchc
                0x9d039c30                odispcardinfo
                0x9d039c50                oxscardxx
                0x9d039c78                ogetcard_info
                0x9d039c98                ogetcard_m
                0x9d039cbc                ogetcard_f
                0x9d039cdc                osel_precoo
                0x9d039d3c                oqry_card_Recharge
                0x9d039e54                Card_Ash
                0x9d039f10                Card_Solution
                0x9d039fcc                oset_getclasum
                0x9d03a078                oqry_shift
                0x9d03a17c                oqry_todayshift
                0x9d03a280                oqry_get_jlerr
                0x9d03a6dc                oqry_sw_state
                0x9d03a754                oqry_lsh_set
                0x9d03a7e4                oqry_key_sw
                0x9d03ac8c                oqry_zhu_sw
 .text          0x9d03b160     0x30bc build/default/production/_ext/1246622842/key.o
                0x9d03b160                okey_write_data
                0x9d03b1cc                okey_read_data
                0x9d03b228                okey_operat_mod
                0x9d03b290                okey_init
                0x9d03b2b0                okey_scan_ex_io
                0x9d03b818                okey_scan_ex
                0x9d03bb84                okeyinput_getstr
                0x9d03bfc0                okeyinput_getstrcn
                0x9d03c2d4                okeyinput_get_pass
                0x9d03ca0c                okeyinput_getstrpw
                0x9d03cd20                okeyinput_GetstrPSW
                0x9d03d158                okey_timestr
                0x9d03d41c                okey_datestr
                0x9d03d6e0                okeyinput_get_cp
                0x9d03da80                okeyinput_getstr_zf
                0x9d03df34                okeyinput_getstrbl
 .text          0x9d03e21c     0x2d58 build/default/production/_ext/1218090624/module_test.o
                0x9d03e21c                omodule_ui_p1
                0x9d03e2c4                omodule_ui_p2
                0x9d03e36c                omodule_ui_p3
                0x9d03e3e4                omodule_ui_switch
                0x9d03e470                omodule_key_test_disp
                0x9d03e7b8                omodule_key_test
                0x9d03e874                omodule_modbus_ui
                0x9d03e90c                omodule_modbus_ser_ui
                0x9d03e98c                omodule_modbus_switch_test
                0x9d03e9d0                omodule_modbus_switch_disp
                0x9d03ea40                omodule_modbus_flowrate_test
                0x9d03ec94                omodule_modbus_total_test
                0x9d03eee8                omodule_modbus_temp_test
                0x9d03f13c                omodule_modbus_gain_test
                0x9d03f390                omodule_modbus_densty_test
                0x9d03f5e4                omodule_modbus_clr_test
                0x9d03f868                omodule_auto_buff_test
                0x9d03faec                omodule_vctrl_ui
                0x9d03fb64                omodule_vctrl_test_init
                0x9d03fb9c                omodule_vctrl_test_end
                0x9d03fbd4                omodule_vctrlopen_test
                0x9d0401a4                omodule_vctrlclose_test
                0x9d040204                omodule_pump_test
                0x9d04047c                omodule_precool_test
                0x9d0408f0                omodule_print_test
                0x9d040990                omodule_ic_put0
                0x9d040ad0                omodule_ic_put1
                0x9d040b98                omodule_disp_test
                0x9d040c30                omodule_pressure_test
                0x9d040d20                omodule_memory_test
                0x9d040df0                omodule_sp_up
 .text          0x9d040f74     0x1fd8 build/default/production/_ext/1218090624/sign.o
                0x9d040f74                show_get_sppass
                0x9d040fec                show_get_pass
                0x9d041064                show_get_card
                0x9d0410ec                show_zhan_error
                0x9d04114c                show_zhan_ling
                0x9d0411c4                show_pass_error
                0x9d041224                show_card_type_error
                0x9d04129c                sign_startup
                0x9d041324                sign_nocard
                0x9d041358                olng_operate_card_info
                0x9d0413b8                olng_operate_card_info_nosel
                0x9d041418                sign_has_card
                0x9d041b28                sign_error
                0x9d041bf0                print_shift
                0x9d041ee8                oset_shift_Exit
                0x9d04237c                oset_shift_join
                0x9d042aa4                osel_offwork
                0x9d042eec                show_time_over
 .text          0x9d042f4c     0x1ce8 build/default/production/_ext/1218090624/kernel.o
                0x9d042f4c                ostatemachine_keyscan
                0x9d0430bc                ostatemachine_getkey
                0x9d043134                osys_getkey
                0x9d04324c                osys_getkey_ex
                0x9d0432a8                ostatemachine_init
                0x9d043368                ostatemachine_action
                0x9d0438bc                ostatemachine_core
                0x9d0440a8                okernel_running
                0x9d0440bc                runled_fresh
                0x9d0440e8                Com_seril_task

.text.vfprintf  0x9d044c34     0x1bb0
 .text.vfprintf
                0x9d044c34     0x1bb0 d:/program files (x86)/microchip/xc32/v1.30/bin/../lib/gcc/pic32mx/4.5.2/../../../../pic32mx/lib\libc.a(doprnt.o)
                0x9d044c34                vfprintf

.text           0x9d0467e4     0x7510
 .text          0x9d0467e4     0x1b04 build/default/production/_ext/1218090624/init.o
                0x9d0467e4                sys_init
                0x9d046ac8                sys_coretime_init
                0x9d046c24                jrm
                0x9d046cc8                backdisp
                0x9d046da0                top_state
                0x9d046e44                sys_interface_init
                0x9d0470ec                sys_data_chk
                0x9d04710c                show_sysconfig
                0x9d047204                show_sys_recod
                0x9d0472e4                oset_system_init_chk
                0x9d047b94                sys_uart_send_str
                0x9d047cb0                sys_uart_send_char
                0x9d047d9c                sys_uart_printf
                0x9d047e28                sys_uart_init
                0x9d047ee0                sys_get_float
                0x9d047f9c                sys_set_tick
                0x9d047fc8                sys_get_tick
                0x9d047fec                sys_uart_debug_info
                0x9d048028                delay_ms
                0x9d048098                CoreTimerHandler
 .text          0x9d0482e8     0x17a4 build/default/production/_ext/1246622842/gas_log_sp.o
                0x9d0482e8                OnceRecordEEP_SP
                0x9d0483a4                GasRecordMAX_SP
                0x9d0483e8                WriteRecordSerial_SP
                0x9d04847c                WriteRecordDate_SP
                0x9d048598                WiteRecorInfo_SP
                0x9d04868c                WiteRecorInfo_AN
                0x9d048a10                ReadRecordInfo_SP
                0x9d048b0c                DispRecordInfo_SP
                0x9d048c54                OprintRecordInfo_SP
                0x9d0495d4                GasRecordQuery_SP
                0x9d04976c                IndexRecordData_SP
                0x9d049818                GasRecordQueryIndex_SP
 .text          0x9d049a8c     0x1704 build/default/production/_ext/1218090624/main_ui.o
                0x9d049a8c                oui_mainui_fresh
                0x9d049b58                oui_main_ui_set
                0x9d049be8                oui_main_xz_set
                0x9d049edc                oui_main_ui_setPSW
                0x9d04a4f4                oui_main_ui
                0x9d04a6dc                oui_main_ui_qry
                0x9d04a76c                oui_main_ui_qry_soe
                0x9d04a7e4                oqry_flow_l
                0x9d04ab20                oqry_flow_g
                0x9d04ae5c                oui_main_ui_select
                0x9d04aeec                oui_precool_ui
                0x9d04af7c                oui_precool_value_ui
                0x9d04b094                oqry_temp
 .text          0x9d04b190     0x15d0 build/default/production/_ext/1246622842/gas_log.o
                0x9d04b190                str_chan_u8
                0x9d04b1fc                OnceRecordEEP
                0x9d04b2b8                GasRecordMAX
                0x9d04b2fc                WriteRecordSerial
                0x9d04b390                WriteRecordDate
                0x9d04b4ac                WiteRecorInfoOnce
                0x9d04b5a0                WiteRecorInfo
                0x9d04b654                ReadRecordInfo
                0x9d04b750                DispRecordInfo
                0x9d04b898                OprintRecordInfo
                0x9d04c218                GasRecordQuery
                0x9d04c3b0                oqry_GasRecordQuery
                0x9d04c440                IndexRecordData
                0x9d04c4ec                GasRecordQueryIndex
 .text          0x9d04c760     0x1594 build/default/production/_ext/1246622842/lngdebug.o
                0x9d04c760                lngdebugmode_init
                0x9d04c7b4                debug_uart_init
                0x9d04c860                IntUart1Handler
                0x9d04cb8c                Get_info_xs
                0x9d04cc9c                Get_info_hard
                0x9d04cdac                Get_info_Contact
                0x9d04cebc                Get_info_print
                0x9d04cfcc                Save_info_print
                0x9d04d1b0                Save_info_xs
                0x9d04d338                Clr_info_xs
                0x9d04d510                lngdebug_task

.text._vfprintf_cdfFnopuxX
                0x9d04dcf4     0x13d4
 .text._vfprintf_cdfFnopuxX
                0x9d04dcf4     0x13d4 d:/program files (x86)/microchip/xc32/v1.30/bin/../lib/gcc/pic32mx/4.5.2/../../../../pic32mx/lib\libc.a(doprnt_cdfFnopuxX.eo)
                0x9d04dcf4                _vfprintf_cdfFnopuxX
                0x9d04dcf4                _vfprintf_fF
                0x9d04dcf4                _vfprintf_cdnopuxX

.text           0x9d04f0c8     0x2440
 .text          0x9d04f0c8     0x1280 build/default/production/_ext/1246622842/des.o
                0x9d04f0c8                Xor
                0x9d04f150                move_left
                0x9d04f5d8                move_right
                0x9d04fa64                move_bits
                0x9d04fb10                Permutation
                0x9d04fc98                S_GetLine
                0x9d04fd44                S_GetRow
                0x9d04feac                des
                0x9d050288                Current
 .text          0x9d050348     0x11c0 build/default/production/_ext/1246622842/disp.o
                0x9d0504f0                odisp_clr
                0x9d050538                odisp_p
                0x9d050580                odisp_num
                0x9d050784                odisp_sum
                0x9d050990                odisp_sum2
                0x9d050b3c                odisp_price
                0x9d050d20                odisp_disp
                0x9d050d74                odisp2_disp
                0x9d050dc8                odisp_init
                0x9d050e28                odisp_init_chk
                0x9d0511cc                dssp
                0x9d0511fc                dsspone
                0x9d05122c                qzql
                0x9d051444                DisplayClear

.rodata         0x9d051508     0x10fc
 .rodata        0x9d051508     0x10fc build/default/production/_ext/1218090624/sysset.o
                0x9d051508                default_init_str
                0x9d051514                default_float_paras

.text           0x9d052604      0xd44
 .text          0x9d052604      0xd44 build/default/production/_ext/1246622842/nand.o
                0x9d052604                nandGetData
                0x9d052644                nandWriteData
                0x9d0526ac                nandWriteCommand
                0x9d052738                nandWriteAddress
                0x9d052810                WriteBlockAddress
                0x9d0528c0                _NANDRead
                0x9d052924                _NANDc2Read
                0x9d052988                NANDGetStatus0
                0x9d0529ec                _NANDWrite
                0x9d052ad0                onand_getID
                0x9d052b58                onand_wtBuff_ex
                0x9d052c88                onand_wtBuff
                0x9d052e00                onand_rdBuff
                0x9d052fd0                onand_BlockErase
                0x9d05308c                NANDGetPageSize
                0x9d0530b0                NANDGetSpareSize
                0x9d0530d4                NANDGetNumberofPagesPerBlock
                0x9d0530f8                NANDGetNumberofBlocks
                0x9d05311c                NANDGetSize
                0x9d053140                NANDReset
                0x9d053160                ConvertAddr
                0x9d053204                onand_init

.rodata         0x9d053348      0xd38
 .rodata        0x9d053348      0xd38 build/default/production/_ext/1246622842/lngctrl.o

.text           0x9d054080     0x1d04
 .text          0x9d054080      0xa54 build/default/production/_ext/1246622842/clock.o
                0x9d054080                bcd2dec
                0x9d0540d4                checkdate
                0x9d054200                checktime
                0x9d0542ac                ltostr
                0x9d054370                hex2bcd
                0x9d0543e4                ortcc_read_time
                0x9d0545f4                ortcc_read_memory
                0x9d0546a0                ortcc_write_memory
                0x9d05474c                ortcc_set_time
                0x9d054914                ortcc_set_date
 .text          0x9d054ad4      0x9c4 build/default/production/_ext/1246622842/lcd.o
                0x9d054db0                olcd_checkBusy
                0x9d054e44                olcd_writeCommand
                0x9d054f64                olcd_readData
                0x9d054fbc                olcd_clearsCreen
                0x9d054ff0                olcd_dispstr
                0x9d055118                olcd_dispstrhex
                0x9d055240                olcm_dispprintf
                0x9d0552f4                lcd_key_init
                0x9d0553e4                olcd_tip_msg
 .text          0x9d055498      0x8ec d:/program files (x86)/microchip/xc32/v1.30/bin/../lib/gcc/pic32mx/4.5.2/../../../../pic32mx/lib\libm.a(fp32.o)
                0x9d055498                __subsf3
                0x9d055498                fpsub
                0x9d0554a0                fpadd
                0x9d0554a0                __addsf3
                0x9d05570c                fpmul
                0x9d05570c                __mulsf3
                0x9d0558c4                __divsf3
                0x9d0558c4                fpdiv
                0x9d055af0                litofp
                0x9d055af0                sitofp
                0x9d055af0                __floatsisf
                0x9d055b4c                ultofp
                0x9d055b4c                uitofp
                0x9d055b98                fptosi
                0x9d055b98                fptoli
                0x9d055b98                __fixsfsi
                0x9d055c10                fptoui
                0x9d055c10                fptoul
                0x9d055c10                __fixunssfsi
                0x9d055c84                __nesf2
                0x9d055c84                fpcmp
                0x9d055c84                __lesf2
                0x9d055c84                __ltsf2
                0x9d055c84                __gesf2
                0x9d055c84                __eqsf2
                0x9d055c84                __gtsf2
                0x9d055d18                fabsf
                0x9d055d18                fpfabs
                0x9d055d28                __negsf2
                0x9d055d38                fpnan
                0x9d055d38                nanf

.rodata         0x9d055d84      0xf94
 .rodata        0x9d055d84      0x7d4 d:/program files (x86)/microchip/xc32/v1.30/bin/../lib/gcc/pic32mx/4.5.2/../../../../pic32mx/lib\libmchp_peripheral_32MX795F512L.a(int_tbl_lib.o)
                0x9d055d84                __IntSrcTbl
                0x9d0562a0                __IntVectorTbl
 .rodata        0x9d056558      0x7c0 build/default/production/_ext/1246622842/qry.o

.text           0x9d056d18      0xf4c
 .text          0x9d056d18      0x7b8 build/default/production/_ext/1246622842/24lcxxx.o
                0x9d056d18                o24lcxxx_init
                0x9d056d98                o24lcxxx_read
                0x9d056ecc                o24lcxxx_read_bytes
                0x9d057090                o24lcxxx_read_bytes_ex
                0x9d0570ec                AckPolling
                0x9d057180                o24lcxxx_write
                0x9d0572a0                o24lcxxx_write_bytes
                0x9d057418                o24lcxxx_write_bytes_ex
 .text          0x9d0574d0      0x794 build/default/production/_ext/1246622842/iic.o
                0x9d0574d0                i2c_init
                0x9d057574                StopTransfer
                0x9d0575cc                TransmitOneByte
                0x9d057664                StartTransfer
                0x9d057710                i2c_write
                0x9d057854                i2c_read
                0x9d057abc                RTCread_bytes

.rodata         0x9d057c64      0xe40
 .rodata        0x9d057c64      0x75c build/default/production/_ext/1218090624/kernel.o
                0x9d057c64                LNG_OPRTATE
                0x9d057c8c                SYS_MAINUI
                0x9d057cd4                SYS_LOGINUI
                0x9d057d04                SYS_SELECT
                0x9d057d4c                SYS_SOE
                0x9d057d74                Sys_Sw_state
                0x9d057d94                Sys_Lsh_state
                0x9d057dbc                SYS_QRY
                0x9d057e14                SYS_liushuiQRY_SP
                0x9d057e44                SYS_liushuiQRY
                0x9d057e84                SYS_SET
                0x9d057ecc                _SYS_PARAS_SET
                0x9d057f2c                team_SET
                0x9d057f54                SYSSET_SET
                0x9d057fd4                SYS_SETPOWER
                0x9d058024                SYS_ls_SET
                0x9d058084                SYS_SETPRICEX
                0x9d0580f4                _SYS_MODULE_TEST
                0x9d058164                Pressure_SET
                0x9d058194                _SYS_MODULE_MODBUS_TEST
                0x9d0581e4                _SYS_MODULE_VCTRL_TEST
                0x9d05820c                RunMatrix
 .rodata        0x9d0583c0      0x6e4 build/default/production/_ext/1246622842/gas_log.o

.text           0x9d058aa4      0x6cc
 .text          0x9d058aa4      0x6cc build/default/production/_ext/1218090624/main.o
                0x9d058aa4                test_disp
                0x9d058ab8                main
                0x9d058be4                Read_OnceEE
                0x9d058c88                ResetFaultReasonStore
                0x9d058e8c                ResetFaultReasonSearch
                0x9d059008                ResetFaultReasonLastRec
                0x9d05906c                ResetFaultReasonRecEarse
                0x9d059134                ResetFaultReasonRecInit

.rodata         0x9d059170      0x6a4
 .rodata        0x9d059170      0x6a4 build/default/production/_ext/1246622842/gas_log_sp.o

.dinit          0x9d059814      0x680
 .dinit         0x9d059814      0x680 data_init

.rodata         0x9d059e94      0x60c
 .rodata        0x9d059e94      0x60c build/default/production/_ext/1218090624/module_test.o

.text           0x9d05a4a0      0xb64
 .text          0x9d05a4a0      0x5c4 build/default/production/_ext/1246622842/TempDetection.o
                0x9d05a4a0                delay_us
                0x9d05a514                DS18B20_Rst
                0x9d05a578                DS18B20_Check
                0x9d05a678                DS18B20_Read_Bit
                0x9d05a720                DS18B20_Read_Byte
                0x9d05a7b0                DS18B20_Write_Byte
                0x9d05a8a4                DS18B20_Start
                0x9d05a8f4                DS18B20_Init
                0x9d05a92c                DS18B20_Get_Temp
 .text          0x9d05aa64      0x5a0 build/default/production/_ext/1246622842/uart.o
                0x9d05aa64                uart_init
                0x9d05abc0                Uart_Send_Data
                0x9d05acf4                Uart_Get_Data
                0x9d05ae68                IntUart4Handler

.rodata         0x9d05b004      0xa60
 .rodata        0x9d05b004      0x534 build/default/production/_ext/1246622842/soe.o
 .rodata        0x9d05b538      0x52c build/default/production/_ext/1246622842/ic_card.o

.text           0x9d05ba64     0x10f8
 .text          0x9d05ba64      0x470 build/default/production/_ext/1246622842/print.o
                0x9d05ba64                oprint_init
                0x9d05bb00                oprint_header_cmd
                0x9d05bb58                oprint_normal_cmd
                0x9d05bbc8                oprint_printf
                0x9d05bc54                oprint_sys_paras
                0x9d05bd58                oprint_operate_shift
 .text          0x9d05bed4      0x464 d:/program files (x86)/microchip/xc32/v1.30/bin/../lib/gcc/pic32mx/4.5.2\libgcc.a(_umoddi3.o)
                0x9d05bed4                __umoddi3
 .text          0x9d05c338      0x448 d:/program files (x86)/microchip/xc32/v1.30/bin/../lib/gcc/pic32mx/4.5.2\libgcc.a(_udivdi3.o)
                0x9d05c338                __udivdi3
 .text          0x9d05c780      0x3dc d:/program files (x86)/microchip/xc32/v1.30/bin/../lib/gcc/pic32mx/4.5.2/../../../../pic32mx/lib\libm.a(fpmod32.o)
                0x9d05c780                fpfmod
                0x9d05c780                fmodf
                0x9d05c8c4                fpfrexp
                0x9d05c8c4                frexpf
                0x9d05c948                fpldexp
                0x9d05c948                __mchp_ldexpf
                0x9d05ca8c                modff
                0x9d05ca8c                fpmodf

.text.__strtof  0x9d05cb5c      0x380
 .text.__strtof
                0x9d05cb5c      0x380 d:/program files (x86)/microchip/xc32/v1.30/bin/../lib/gcc/pic32mx/4.5.2/../../../../pic32mx/lib\libe.a(_strtof.o)
                0x9d05cb5c                __strtof

.rodata         0x9d05cedc      0x664
 .rodata        0x9d05cedc      0x344 build/default/production/_ext/1218090624/main_ui.o
 .rodata        0x9d05d220      0x320 build/default/production/_ext/1218090624/sign.o

.text           0x9d05d540      0x2f8
 .text          0x9d05d540      0x2f8 build/default/production/_ext/1218090624/store.o
                0x9d05d540                ostore_set_paras
                0x9d05d5c8                ostore_read_paras
                0x9d05d638                ostore_paras_rdfloat
                0x9d05d690                ostore_paras_wtfloat
                0x9d05d6e0                ostore_paras_rdint
                0x9d05d734                ostore_paras_wtint
                0x9d05d78c                ostore_paras_rdchar
                0x9d05d7e4                ostore_paras_wtchar

.text.scale     0x9d05d838      0x540
 .text.scale    0x9d05d838      0x2a0 d:/program files (x86)/microchip/xc32/v1.30/bin/../lib/gcc/pic32mx/4.5.2/../../../../pic32mx/lib\libc.a(doprnt_cdfFnopuxX.eo)
 .text.scale    0x9d05dad8      0x2a0 d:/program files (x86)/microchip/xc32/v1.30/bin/../lib/gcc/pic32mx/4.5.2/../../../../pic32mx/lib\libc.a(doprnt.o)

.rodata         0x9d05dd78      0x268
 .rodata        0x9d05dd78      0x268 build/default/production/_ext/1218090624/init.o

.text.strtoul   0x9d05dfe0      0x220
 .text.strtoul  0x9d05dfe0      0x220 d:/program files (x86)/microchip/xc32/v1.30/bin/../lib/gcc/pic32mx/4.5.2/../../../../pic32mx/lib\libc.a(strtol.o)
                0x9d05dfe0                strtoul

.text.__floatdisf
                0x9d05e200      0x220
 .text.__floatdisf
                0x9d05e200      0x220 d:/program files (x86)/microchip/xc32/v1.30/bin/../lib/gcc/pic32mx/4.5.2/../../../../pic32mx/lib\libe.a(_floatdisf.o)
                0x9d05e200                __floatdisf

.text           0x9d05e420      0x1cc
 .text          0x9d05e420      0x1cc build/default/production/_ext/1246622842/buzzer.o
                0x9d05e420                buzzer_key_soud
                0x9d05e458                buzzer_power_up_sound
                0x9d05e4ac                buzzer_power_down_sound
                0x9d05e4ec                play_note
                0x9d05e5cc                buzzer_config

.text.fround    0x9d05e5ec      0x1a4
 .text.fround   0x9d05e5ec      0x1a4 d:/program files (x86)/microchip/xc32/v1.30/bin/../lib/gcc/pic32mx/4.5.2/../../../../pic32mx/lib\libc.a(doprnt.o)

.text           0x9d05e790      0x470
 .text          0x9d05e790      0x1a0 d:/program files (x86)/microchip/xc32/v1.30/bin/../lib/gcc/pic32mx/4.5.2/../../../../pic32mx/lib\libpic32.a(strcpy.o)
                0x9d05e790                strcpy
 .text          0x9d05e930      0x168 d:/program files (x86)/microchip/xc32/v1.30/bin/../lib/gcc/pic32mx/4.5.2/../../../../pic32mx/lib\libpic32.a(memcpy.o)
                0x9d05e930                memcpy
 .text          0x9d05ea98      0x168 d:/program files (x86)/microchip/xc32/v1.30/bin/../lib/gcc/pic32mx/4.5.2/../../../../pic32mx/lib\libpic32.a(strlen.o)
                0x9d05ea98                strlen

.text.strtol    0x9d05ec00      0x168
 .text.strtol   0x9d05ec00      0x168 d:/program files (x86)/microchip/xc32/v1.30/bin/../lib/gcc/pic32mx/4.5.2/../../../../pic32mx/lib\libc.a(strtol.o)
                0x9d05ec00                strtol

.text.fputc     0x9d05ed68      0x15c
 .text.fputc    0x9d05ed68      0x15c d:/program files (x86)/microchip/xc32/v1.30/bin/../lib/gcc/pic32mx/4.5.2/../../../../pic32mx/lib\libc.a(_fputc_simple.o)
                0x9d05ed68                fputc

.text._flsbuf   0x9d05eec4      0x12c
 .text._flsbuf  0x9d05eec4      0x12c d:/program files (x86)/microchip/xc32/v1.30/bin/../lib/gcc/pic32mx/4.5.2/../../../../pic32mx/lib\libc.a(_flsbuf_simple.o)
                0x9d05eec4                _flsbuf

.rodata         0x9d05eff0      0x128
 .rodata        0x9d05eff0      0x128 build/default/production/_ext/1246622842/print.o

.text           0x9d05f118      0x120
 .text          0x9d05f118      0x120 d:/program files (x86)/microchip/xc32/v1.30/bin/../lib/gcc/pic32mx/4.5.2/../../../../pic32mx/lib\libpic32.a(strcmp.o)
                0x9d05f118                strcmp

.rodata         0x9d05f238      0x208
 .rodata        0x9d05f238      0x104 build/default/production/_ext/1246622842/key.o
                0x9d05f244                KEY_MAP
 .rodata        0x9d05f33c      0x104 d:/program files (x86)/microchip/xc32/v1.30/bin/../lib/gcc/pic32mx/4.5.2/../../../../pic32mx/lib\libc.a(ctype.o)
                0x9d05f33c                _ctype

.text.__ldexpf  0x9d05f440      0x104
 .text.__ldexpf
                0x9d05f440      0x104 d:/program files (x86)/microchip/xc32/v1.30/bin/../lib/gcc/pic32mx/4.5.2/../../../../pic32mx/lib\libe.a(_ldexpf.o)
                0x9d05f440                __ldexpf

.rodata         0x9d05f544      0x100
 .rodata        0x9d05f544      0x100 build/default/production/_ext/1246622842/lngdebug.o

.rodata         0x9d05f648      0x1c8
 .rodata        0x9d05f648       0xe8 d:/program files (x86)/microchip/xc32/v1.30/bin/../lib/gcc/pic32mx/4.5.2/../../../../pic32mx/lib\libc.a(doprnt.o)
 .rodata        0x9d05f730       0xe0 d:/program files (x86)/microchip/xc32/v1.30/bin/../lib/gcc/pic32mx/4.5.2/../../../../pic32mx/lib\libc.a(doprnt_cdfFnopuxX.eo)

.text.general_exception
                0x9d05f810       0xdc
 .text.general_exception
                0x9d05f810       0xdc d:/program files (x86)/microchip/xc32/v1.30/bin/../lib/gcc/pic32mx/4.5.2/../../../../pic32mx/lib\libpic32.a(general-exception.o)
                0x9d05f810                _general_exception_context

.text           0x9d05f8ec       0xd4
 .text          0x9d05f8ec       0xd4 d:/program files (x86)/microchip/xc32/v1.30/bin/../lib/gcc/pic32mx/4.5.2\libgcc.a(_floatundisf.o)
                0x9d05f8ec                __floatundisf

.text._mon_putc
                0x9d05f9c0       0xb4
 .text._mon_putc
                0x9d05f9c0       0xb4 d:/program files (x86)/microchip/xc32/v1.30/bin/../lib/gcc/pic32mx/4.5.2/../../../../pic32mx/lib\libpic32.a(_mon_putc.o)
                0x9d05f9c0                _mon_putc

.text           0x9d05fa74       0xa8
 .text          0x9d05fa74       0xa8 d:/program files (x86)/microchip/xc32/v1.30/bin/../lib/gcc/pic32mx/4.5.2/../../../../pic32mx/lib\libpic32.a(memset.o)
                0x9d05fa74                memset

.text.atoi      0x9d05fb1c       0xa8
 .text.atoi     0x9d05fb1c       0xa8 d:/program files (x86)/microchip/xc32/v1.30/bin/../lib/gcc/pic32mx/4.5.2/../../../../pic32mx/lib\libc.a(atoi.o)
                0x9d05fb1c                atoi

.text.strstr    0x9d05fbc4       0x9c
 .text.strstr   0x9d05fbc4       0x9c d:/program files (x86)/microchip/xc32/v1.30/bin/../lib/gcc/pic32mx/4.5.2/../../../../pic32mx/lib\libc.a(strstr.o)
                0x9d05fbc4                strstr

.text           0x9d05fc60       0x98
 .text          0x9d05fc60       0x98 d:/program files (x86)/microchip/xc32/v1.30/bin/../lib/gcc/pic32mx/4.5.2/../../../../pic32mx/lib\libpic32.a(memcmp.o)
                0x9d05fc60                memcmp

.text.write     0x9d05fcf8       0x94
 .text.write    0x9d05fcf8       0x94 d:/program files (x86)/microchip/xc32/v1.30/bin/../lib/gcc/pic32mx/4.5.2/../../../../pic32mx/lib\libpic32.a(write.o)
                0x9d05fcf8                write

.rodata         0x9d05fd8c       0x88
 .rodata        0x9d05fd8c       0x88 build/default/production/_ext/1246622842/lcd.o
                0x9d05fd8c                UI_TIPS

.text.UARTEnable
                0x9d05fe14       0x80
 .text.UARTEnable
                0x9d05fe14       0x80 d:/program files (x86)/microchip/xc32/v1.30/bin/../lib/gcc/pic32mx/4.5.2/../../../../pic32mx/lib\libmchp_peripheral_32MX795F512L.a(uart_lib.o)
                0x9d05fe14                UARTEnable

.text.strncmp   0x9d05fe94       0x78
 .text.strncmp  0x9d05fe94       0x78 d:/program files (x86)/microchip/xc32/v1.30/bin/../lib/gcc/pic32mx/4.5.2/../../../../pic32mx/lib\libc.a(strncmp.o)
                0x9d05fe94                strncmp

.text.IdleI2C2  0x9d05ff0c       0x74
 .text.IdleI2C2
                0x9d05ff0c       0x74 d:/program files (x86)/microchip/xc32/v1.30/bin/../lib/gcc/pic32mx/4.5.2/../../../../pic32mx/lib\libmchp_peripheral_32MX795F512L.a(idle_i2c2_lib_legacy.o)
                0x9d05ff0c                IdleI2C2

.text.utoa      0x9d05ff80       0x68
 .text.utoa     0x9d05ff80       0x68 d:/program files (x86)/microchip/xc32/v1.30/bin/../lib/gcc/pic32mx/4.5.2/../../../../pic32mx/lib\libc.a(itoa.o)
                0x9d05ff80                utoa

.text._sprintf_cdfFnopuxX
                0x9d05ffe8       0x68
 .text._sprintf_cdfFnopuxX
                0x9d05ffe8       0x68 d:/program files (x86)/microchip/xc32/v1.30/bin/../lib/gcc/pic32mx/4.5.2/../../../../pic32mx/lib\libc.a(sprintf_cdfFnopuxX.eo)
                0x9d05ffe8                _sprintf_cdnopuxX
                0x9d05ffe8                _sprintf_fF
                0x9d05ffe8                _sprintf_cdfFnopuxX

.rodata         0x9d060050       0x68
 .rodata        0x9d060050       0x68 d:/program files (x86)/microchip/xc32/v1.30/bin/../lib/gcc/pic32mx/4.5.2/../../../../pic32mx/lib\libc.a(powersf.o)
                0x9d060050                _powers_f
                0x9d060084                _npowers_f

.text.MasterWriteI2C2
                0x9d0600b8       0x60
 .text.MasterWriteI2C2
                0x9d0600b8       0x60 d:/program files (x86)/microchip/xc32/v1.30/bin/../lib/gcc/pic32mx/4.5.2/../../../../pic32mx/lib\libmchp_peripheral_32MX795F512L.a(master_write_i2c2_lib_legacy.o)
                0x9d0600b8                MasterWriteI2C2

.rodata         0x9d060118       0x5c
 .rodata        0x9d060118       0x5c build/default/production/_ext/1246622842/disp.o

.text.UARTSetDataRate
                0x9d060174       0x5c
 .text.UARTSetDataRate
                0x9d060174       0x5c d:/program files (x86)/microchip/xc32/v1.30/bin/../lib/gcc/pic32mx/4.5.2/../../../../pic32mx/lib\libmchp_peripheral_32MX795F512L.a(uart_lib.o)
                0x9d060174                UARTSetDataRate

.rodata         0x9d0601d0       0x54
 .rodata        0x9d0601d0       0x54 d:/program files (x86)/microchip/xc32/v1.30/bin/../lib/gcc/pic32mx/4.5.2/../../../../pic32mx/lib\libmchp_peripheral_32MX795F512L.a(_ports_tbl_libp.o)
                0x9d0601d0                PortRegTbl

.text.I2CBusIsIdle
                0x9d060224       0x54
 .text.I2CBusIsIdle
                0x9d060224       0x54 d:/program files (x86)/microchip/xc32/v1.30/bin/../lib/gcc/pic32mx/4.5.2/../../../../pic32mx/lib\libmchp_peripheral_32MX795F512L.a(I2CBusIsIdle.o)
                0x9d060224                I2CBusIsIdle

.text.vsprintf  0x9d060278       0x54
 .text.vsprintf
                0x9d060278       0x54 d:/program files (x86)/microchip/xc32/v1.30/bin/../lib/gcc/pic32mx/4.5.2/../../../../pic32mx/lib\libc.a(vsprintf.o)
                0x9d060278                vsprintf

.text.INTEnable
                0x9d0602cc       0x50
 .text.INTEnable
                0x9d0602cc       0x50 d:/program files (x86)/microchip/xc32/v1.30/bin/../lib/gcc/pic32mx/4.5.2/../../../../pic32mx/lib\libmchp_peripheral_32MX795F512L.a(int_tbl_lib.o)
                0x9d0602cc                INTEnable

.text.main_entry
                0x9d06031c       0x4c
 .text.main_entry
                0x9d06031c       0x4c d:/program files (x86)/microchip/xc32/v1.30/bin/../lib/gcc/pic32mx/4.5.2/../../../../pic32mx/lib/./proc/32MX795F512L/crt0_mips32r2.o
                0x9d060348                __crt0_exit

.text           0x9d060368       0x4c
 .text          0x9d060368       0x4c d:/program files (x86)/microchip/xc32/v1.30/bin/../lib/gcc/pic32mx/4.5.2\libgcc.a(floatunsisf.o)
                0x9d060368                __floatunsisf

.rodata         0x9d0603b4       0x48
 .rodata        0x9d0603b4       0x48 build/default/production/_ext/1246622842/company.o

.text.I2CSetFrequency
                0x9d0603fc       0x48
 .text.I2CSetFrequency
                0x9d0603fc       0x48 d:/program files (x86)/microchip/xc32/v1.30/bin/../lib/gcc/pic32mx/4.5.2/../../../../pic32mx/lib\libmchp_peripheral_32MX795F512L.a(I2CSetFrequency.o)
                0x9d0603fc                I2CSetFrequency

.text.I2CGetStatus
                0x9d060444       0x44
 .text.I2CGetStatus
                0x9d060444       0x44 d:/program files (x86)/microchip/xc32/v1.30/bin/../lib/gcc/pic32mx/4.5.2/../../../../pic32mx/lib\libmchp_peripheral_32MX795F512L.a(I2CGetStatus.o)
                0x9d060444                I2CGetStatus

.text           0x9d060488       0x44
 .text          0x9d060488       0x44 d:/program files (x86)/microchip/xc32/v1.30/bin/../lib/gcc/pic32mx/4.5.2/../../../../pic32mx/lib\libpic32.a(pic32_software_reset.o)
                0x9d060488                __pic32_software_reset

.text.UARTGetDataRate
                0x9d0604cc       0x40
 .text.UARTGetDataRate
                0x9d0604cc       0x40 d:/program files (x86)/microchip/xc32/v1.30/bin/../lib/gcc/pic32mx/4.5.2/../../../../pic32mx/lib\libmchp_peripheral_32MX795F512L.a(uart_lib.o)
                0x9d0604cc                UARTGetDataRate

.text.MasterReadI2C2
                0x9d06050c       0x40
 .text.MasterReadI2C2
                0x9d06050c       0x40 d:/program files (x86)/microchip/xc32/v1.30/bin/../lib/gcc/pic32mx/4.5.2/../../../../pic32mx/lib\libmchp_peripheral_32MX795F512L.a(master_read_i2c2_lib_legacy.o)
                0x9d06050c                MasterReadI2C2

.text.I2CSetSlaveAddress
                0x9d06054c       0x40
 .text.I2CSetSlaveAddress
                0x9d06054c       0x40 d:/program files (x86)/microchip/xc32/v1.30/bin/../lib/gcc/pic32mx/4.5.2/../../../../pic32mx/lib\libmchp_peripheral_32MX795F512L.a(I2CSetSlaveAddress.o)
                0x9d06054c                I2CSetSlaveAddress

.text.itoa      0x9d06058c       0x40
 .text.itoa     0x9d06058c       0x40 d:/program files (x86)/microchip/xc32/v1.30/bin/../lib/gcc/pic32mx/4.5.2/../../../../pic32mx/lib\libc.a(itoa.o)
                0x9d06058c                itoa

.text.PORTSetPinsDigitalIn
                0x9d0605cc       0x3c
 .text.PORTSetPinsDigitalIn
                0x9d0605cc       0x3c d:/program files (x86)/microchip/xc32/v1.30/bin/../lib/gcc/pic32mx/4.5.2/../../../../pic32mx/lib\libmchp_peripheral_32MX795F512L.a(port_set_pins_digital_in_lib.o)
                0x9d0605cc                PORTSetPinsDigitalIn

.text.PORTSetPinsDigitalOut
                0x9d060608       0x3c
 .text.PORTSetPinsDigitalOut
                0x9d060608       0x3c d:/program files (x86)/microchip/xc32/v1.30/bin/../lib/gcc/pic32mx/4.5.2/../../../../pic32mx/lib\libmchp_peripheral_32MX795F512L.a(port_set_pins_digital_out_lib.o)
                0x9d060608                PORTSetPinsDigitalOut

.text.UARTConfigure
                0x9d060644       0x3c
 .text.UARTConfigure
                0x9d060644       0x3c d:/program files (x86)/microchip/xc32/v1.30/bin/../lib/gcc/pic32mx/4.5.2/../../../../pic32mx/lib\libmchp_peripheral_32MX795F512L.a(uart_lib.o)
                0x9d060644                UARTConfigure

.text.UARTSetAddress
                0x9d060680       0x3c
 .text.UARTSetAddress
                0x9d060680       0x3c d:/program files (x86)/microchip/xc32/v1.30/bin/../lib/gcc/pic32mx/4.5.2/../../../../pic32mx/lib\libmchp_peripheral_32MX795F512L.a(uart_lib.o)
                0x9d060680                UARTSetAddress

.text.INTSetVectorPriority
                0x9d0606bc       0x38
 .text.INTSetVectorPriority
                0x9d0606bc       0x38 d:/program files (x86)/microchip/xc32/v1.30/bin/../lib/gcc/pic32mx/4.5.2/../../../../pic32mx/lib\libmchp_peripheral_32MX795F512L.a(int_tbl_lib.o)
                0x9d0606bc                INTSetVectorPriority

.text.INTSetVectorSubPriority
                0x9d0606f4       0x38
 .text.INTSetVectorSubPriority
                0x9d0606f4       0x38 d:/program files (x86)/microchip/xc32/v1.30/bin/../lib/gcc/pic32mx/4.5.2/../../../../pic32mx/lib\libmchp_peripheral_32MX795F512L.a(int_tbl_lib.o)
                0x9d0606f4                INTSetVectorSubPriority

.text.UARTWatchForAddress
                0x9d06072c       0x38
 .text.UARTWatchForAddress
                0x9d06072c       0x38 d:/program files (x86)/microchip/xc32/v1.30/bin/../lib/gcc/pic32mx/4.5.2/../../../../pic32mx/lib\libmchp_peripheral_32MX795F512L.a(uart_lib.o)
                0x9d06072c                UARTWatchForAddress

.text.I2CReceiverEnable
                0x9d060764       0x38
 .text.I2CReceiverEnable
                0x9d060764       0x38 d:/program files (x86)/microchip/xc32/v1.30/bin/../lib/gcc/pic32mx/4.5.2/../../../../pic32mx/lib\libmchp_peripheral_32MX795F512L.a(I2CReceiverEnable.o)
                0x9d060764                I2CReceiverEnable

.text._bootstrap_exception_handler
                0x9d06079c       0x38
 .text._bootstrap_exception_handler
                0x9d06079c       0x38 d:/program files (x86)/microchip/xc32/v1.30/bin/../lib/gcc/pic32mx/4.5.2/../../../../pic32mx/lib\libpic32.a(default-bootstrap-exception-handler.o)
                0x9d06079c                _bootstrap_exception_handler

.text._general_exception_handler
                0x9d0607d4       0x38
 .text._general_exception_handler
                0x9d0607d4       0x38 d:/program files (x86)/microchip/xc32/v1.30/bin/../lib/gcc/pic32mx/4.5.2/../../../../pic32mx/lib\libpic32.a(default-general-exception-handler.o)
                0x9d0607d4                _general_exception_handler

.rodata         0x9d06080c       0x34
 .rodata        0x9d06080c       0x34 build/default/production/_ext/1246622842/clock.o

.text.I2CSendByte
                0x9d060840       0x34
 .text.I2CSendByte
                0x9d060840       0x34 d:/program files (x86)/microchip/xc32/v1.30/bin/../lib/gcc/pic32mx/4.5.2/../../../../pic32mx/lib\libmchp_peripheral_32MX795F512L.a(I2CSendByte.o)
                0x9d060840                I2CSendByte

.text.I2CStart  0x9d060874       0x34
 .text.I2CStart
                0x9d060874       0x34 d:/program files (x86)/microchip/xc32/v1.30/bin/../lib/gcc/pic32mx/4.5.2/../../../../pic32mx/lib\libmchp_peripheral_32MX795F512L.a(I2CStart.o)
                0x9d060874                I2CStart

.text.INTConfigureSystem
                0x9d0608a8       0x30
 .text.INTConfigureSystem
                0x9d0608a8       0x30 d:/program files (x86)/microchip/xc32/v1.30/bin/../lib/gcc/pic32mx/4.5.2/../../../../pic32mx/lib\libmchp_peripheral_32MX795F512L.a(int_configure_system_lib.o)
                0x9d0608a8                INTConfigureSystem

.text.I2CRepeatStart
                0x9d0608d8       0x30
 .text.I2CRepeatStart
                0x9d0608d8       0x30 d:/program files (x86)/microchip/xc32/v1.30/bin/../lib/gcc/pic32mx/4.5.2/../../../../pic32mx/lib\libmchp_peripheral_32MX795F512L.a(I2CRepeatStart.o)
                0x9d0608d8                I2CRepeatStart

.text.INTGetVectorPriority
                0x9d060908       0x2c
 .text.INTGetVectorPriority
                0x9d060908       0x2c d:/program files (x86)/microchip/xc32/v1.30/bin/../lib/gcc/pic32mx/4.5.2/../../../../pic32mx/lib\libmchp_peripheral_32MX795F512L.a(int_tbl_lib.o)
                0x9d060908                INTGetVectorPriority

.text.INTGetVectorSubPriority
                0x9d060934       0x2c
 .text.INTGetVectorSubPriority
                0x9d060934       0x2c d:/program files (x86)/microchip/xc32/v1.30/bin/../lib/gcc/pic32mx/4.5.2/../../../../pic32mx/lib\libmchp_peripheral_32MX795F512L.a(int_tbl_lib.o)
                0x9d060934                INTGetVectorSubPriority

.text.INTClearFlag
                0x9d060960       0x28
 .text.INTClearFlag
                0x9d060960       0x28 d:/program files (x86)/microchip/xc32/v1.30/bin/../lib/gcc/pic32mx/4.5.2/../../../../pic32mx/lib\libmchp_peripheral_32MX795F512L.a(int_tbl_lib.o)
                0x9d060960                INTClearFlag

.text.INTSetFlag
                0x9d060988       0x28
 .text.INTSetFlag
                0x9d060988       0x28 d:/program files (x86)/microchip/xc32/v1.30/bin/../lib/gcc/pic32mx/4.5.2/../../../../pic32mx/lib\libmchp_peripheral_32MX795F512L.a(int_tbl_lib.o)
                0x9d060988                INTSetFlag

.text.INTGetFlag
                0x9d0609b0       0x28
 .text.INTGetFlag
                0x9d0609b0       0x28 d:/program files (x86)/microchip/xc32/v1.30/bin/../lib/gcc/pic32mx/4.5.2/../../../../pic32mx/lib\libmchp_peripheral_32MX795F512L.a(int_tbl_lib.o)
                0x9d0609b0                INTGetFlag

.text.INTGetEnable
                0x9d0609d8       0x28
 .text.INTGetEnable
                0x9d0609d8       0x28 d:/program files (x86)/microchip/xc32/v1.30/bin/../lib/gcc/pic32mx/4.5.2/../../../../pic32mx/lib\libmchp_peripheral_32MX795F512L.a(int_tbl_lib.o)
                0x9d0609d8                INTGetEnable

.text.UARTSetFifoMode
                0x9d060a00       0x28
 .text.UARTSetFifoMode
                0x9d060a00       0x28 d:/program files (x86)/microchip/xc32/v1.30/bin/../lib/gcc/pic32mx/4.5.2/../../../../pic32mx/lib\libmchp_peripheral_32MX795F512L.a(uart_lib.o)
                0x9d060a00                UARTSetFifoMode

.text.UARTSetLineControl
                0x9d060a28       0x28
 .text.UARTSetLineControl
                0x9d060a28       0x28 d:/program files (x86)/microchip/xc32/v1.30/bin/../lib/gcc/pic32mx/4.5.2/../../../../pic32mx/lib\libmchp_peripheral_32MX795F512L.a(uart_lib.o)
                0x9d060a28                UARTSetLineControl

.text.I2CEnable
                0x9d060a50       0x28
 .text.I2CEnable
                0x9d060a50       0x28 d:/program files (x86)/microchip/xc32/v1.30/bin/../lib/gcc/pic32mx/4.5.2/../../../../pic32mx/lib\libmchp_peripheral_32MX795F512L.a(I2CEnable.o)
                0x9d060a50                I2CEnable

.text.strchr    0x9d060a78       0x28
 .text.strchr   0x9d060a78       0x28 d:/program files (x86)/microchip/xc32/v1.30/bin/../lib/gcc/pic32mx/4.5.2/../../../../pic32mx/lib\libc.a(strchr.o)
                0x9d060a78                strchr

.text.I2CByteWasAcknowledged
                0x9d060aa0       0x24
 .text.I2CByteWasAcknowledged
                0x9d060aa0       0x24 d:/program files (x86)/microchip/xc32/v1.30/bin/../lib/gcc/pic32mx/4.5.2/../../../../pic32mx/lib\libmchp_peripheral_32MX795F512L.a(I2CByteWasAcknowledged.o)
                0x9d060aa0                I2CByteWasAcknowledged

.text.I2CStop   0x9d060ac4       0x24
 .text.I2CStop  0x9d060ac4       0x24 d:/program files (x86)/microchip/xc32/v1.30/bin/../lib/gcc/pic32mx/4.5.2/../../../../pic32mx/lib\libmchp_peripheral_32MX795F512L.a(I2CStop.o)
                0x9d060ac4                I2CStop

.text.I2CTransmissionHasCompleted
                0x9d060ae8       0x24
 .text.I2CTransmissionHasCompleted
                0x9d060ae8       0x24 d:/program files (x86)/microchip/xc32/v1.30/bin/../lib/gcc/pic32mx/4.5.2/../../../../pic32mx/lib\libmchp_peripheral_32MX795F512L.a(I2CTransmissionHasCompleted.o)
                0x9d060ae8                I2CTransmissionHasCompleted

.text.I2CTransmitterIsReady
                0x9d060b0c       0x24
 .text.I2CTransmitterIsReady
                0x9d060b0c       0x24 d:/program files (x86)/microchip/xc32/v1.30/bin/../lib/gcc/pic32mx/4.5.2/../../../../pic32mx/lib\libmchp_peripheral_32MX795F512L.a(I2CTransmitterIsReady.o)
                0x9d060b0c                I2CTransmitterIsReady

.text.tolower   0x9d060b30       0x24
 .text.tolower  0x9d060b30       0x24 d:/program files (x86)/microchip/xc32/v1.30/bin/../lib/gcc/pic32mx/4.5.2/../../../../pic32mx/lib\libc.a(ctypef.o)
                0x9d060b30                tolower

.text.toupper   0x9d060b54       0x24
 .text.toupper  0x9d060b54       0x24 d:/program files (x86)/microchip/xc32/v1.30/bin/../lib/gcc/pic32mx/4.5.2/../../../../pic32mx/lib\libc.a(ctypef.o)
                0x9d060b54                toupper

.text.I2CConfigure
                0x9d060b78       0x20
 .text.I2CConfigure
                0x9d060b78       0x20 d:/program files (x86)/microchip/xc32/v1.30/bin/../lib/gcc/pic32mx/4.5.2/../../../../pic32mx/lib\libmchp_peripheral_32MX795F512L.a(I2CConfigure.o)
                0x9d060b78                I2CConfigure

.text.I2CGetByte
                0x9d060b98       0x20
 .text.I2CGetByte
                0x9d060b98       0x20 d:/program files (x86)/microchip/xc32/v1.30/bin/../lib/gcc/pic32mx/4.5.2/../../../../pic32mx/lib\libmchp_peripheral_32MX795F512L.a(I2CGetByte.o)
                0x9d060b98                I2CGetByte

.text.I2CReceivedDataIsAvailable
                0x9d060bb8       0x20
 .text.I2CReceivedDataIsAvailable
                0x9d060bb8       0x20 d:/program files (x86)/microchip/xc32/v1.30/bin/../lib/gcc/pic32mx/4.5.2/../../../../pic32mx/lib\libmchp_peripheral_32MX795F512L.a(I2CReceivedDataIsAvailable.o)
                0x9d060bb8                I2CReceivedDataIsAvailable

.text.ldiv      0x9d060bd8       0x20
 .text.ldiv     0x9d060bd8       0x20 d:/program files (x86)/microchip/xc32/v1.30/bin/../lib/gcc/pic32mx/4.5.2/../../../../pic32mx/lib\libc.a(cldiv.o)
                0x9d060bd8                ldiv

.text.INTRestoreInterrupts
                0x9d060bf8       0x1c
 .text.INTRestoreInterrupts
                0x9d060bf8       0x1c d:/program files (x86)/microchip/xc32/v1.30/bin/../lib/gcc/pic32mx/4.5.2/../../../../pic32mx/lib\libmchp_peripheral_32MX795F512L.a(int_restore_interrupts_lib.o)
                0x9d060bf8                INTRestoreInterrupts

.text.atof      0x9d060c14       0x1c
 .text.atof     0x9d060c14       0x1c d:/program files (x86)/microchip/xc32/v1.30/bin/../lib/gcc/pic32mx/4.5.2/../../../../pic32mx/lib\libc.a(atof.o)
                0x9d060c14                atof

.text.strtof    0x9d060c30       0x1c
 .text.strtof   0x9d060c30       0x1c d:/program files (x86)/microchip/xc32/v1.30/bin/../lib/gcc/pic32mx/4.5.2/../../../../pic32mx/lib\libc.a(strtof.o)
                0x9d060c30                strtof

.text.strtodf   0x9d060c4c       0x1c
 .text.strtodf  0x9d060c4c       0x1c d:/program files (x86)/microchip/xc32/v1.30/bin/../lib/gcc/pic32mx/4.5.2/../../../../pic32mx/lib\libc.a(strtof.o)
                0x9d060c4c                strtodf

.text.CheKseg0CacheOff
                0x9d060c68       0x18
 .text.CheKseg0CacheOff
                0x9d060c68       0x18 d:/program files (x86)/microchip/xc32/v1.30/bin/../lib/gcc/pic32mx/4.5.2/../../../../pic32mx/lib\libmchp_peripheral_32MX795F512L.a(pcache.o)
                0x9d060c68                CheKseg0CacheOff

.text.CheKseg0CacheOn
                0x9d060c80       0x18
 .text.CheKseg0CacheOn
                0x9d060c80       0x18 d:/program files (x86)/microchip/xc32/v1.30/bin/../lib/gcc/pic32mx/4.5.2/../../../../pic32mx/lib\libmchp_peripheral_32MX795F512L.a(pcache.o)
                0x9d060c80                CheKseg0CacheOn

.rodata         0x9d060c98       0x18
 .rodata        0x9d060c98       0x18 d:/program files (x86)/microchip/xc32/v1.30/bin/../lib/gcc/pic32mx/4.5.2/../../../../pic32mx/lib\libmchp_peripheral_32MX795F512L.a(uart_lib.o)
                0x9d060c98                uartReg

.text           0x9d060cb0       0x18
 .text          0x9d060cb0       0x18 d:/program files (x86)/microchip/xc32/v1.30/bin/../lib/gcc/pic32mx/4.5.2/../../../../pic32mx/lib\libpic32.a(default-nmi-handler.o)
                0x9d060cb0                _nmi_handler

.text.isalnum   0x9d060cc8       0x18
 .text.isalnum  0x9d060cc8       0x18 d:/program files (x86)/microchip/xc32/v1.30/bin/../lib/gcc/pic32mx/4.5.2/../../../../pic32mx/lib\libc.a(ctypef.o)
                0x9d060cc8                isalnum

.text.isalpha   0x9d060ce0       0x18
 .text.isalpha  0x9d060ce0       0x18 d:/program files (x86)/microchip/xc32/v1.30/bin/../lib/gcc/pic32mx/4.5.2/../../../../pic32mx/lib\libc.a(ctypef.o)
                0x9d060ce0                isalpha

.text.iscntrl   0x9d060cf8       0x18
 .text.iscntrl  0x9d060cf8       0x18 d:/program files (x86)/microchip/xc32/v1.30/bin/../lib/gcc/pic32mx/4.5.2/../../../../pic32mx/lib\libc.a(ctypef.o)
                0x9d060cf8                iscntrl

.text.isdigit   0x9d060d10       0x18
 .text.isdigit  0x9d060d10       0x18 d:/program files (x86)/microchip/xc32/v1.30/bin/../lib/gcc/pic32mx/4.5.2/../../../../pic32mx/lib\libc.a(ctypef.o)
                0x9d060d10                isdigit

.text.isgraph   0x9d060d28       0x18
 .text.isgraph  0x9d060d28       0x18 d:/program files (x86)/microchip/xc32/v1.30/bin/../lib/gcc/pic32mx/4.5.2/../../../../pic32mx/lib\libc.a(ctypef.o)
                0x9d060d28                isgraph

.text.islower   0x9d060d40       0x18
 .text.islower  0x9d060d40       0x18 d:/program files (x86)/microchip/xc32/v1.30/bin/../lib/gcc/pic32mx/4.5.2/../../../../pic32mx/lib\libc.a(ctypef.o)
                0x9d060d40                islower

.text.isprint   0x9d060d58       0x18
 .text.isprint  0x9d060d58       0x18 d:/program files (x86)/microchip/xc32/v1.30/bin/../lib/gcc/pic32mx/4.5.2/../../../../pic32mx/lib\libc.a(ctypef.o)
                0x9d060d58                isprint

.text.ispunct   0x9d060d70       0x18
 .text.ispunct  0x9d060d70       0x18 d:/program files (x86)/microchip/xc32/v1.30/bin/../lib/gcc/pic32mx/4.5.2/../../../../pic32mx/lib\libc.a(ctypef.o)
                0x9d060d70                ispunct

.text.isspace   0x9d060d88       0x18
 .text.isspace  0x9d060d88       0x18 d:/program files (x86)/microchip/xc32/v1.30/bin/../lib/gcc/pic32mx/4.5.2/../../../../pic32mx/lib\libc.a(ctypef.o)
                0x9d060d88                isspace

.text.isupper   0x9d060da0       0x18
 .text.isupper  0x9d060da0       0x18 d:/program files (x86)/microchip/xc32/v1.30/bin/../lib/gcc/pic32mx/4.5.2/../../../../pic32mx/lib\libc.a(ctypef.o)
                0x9d060da0                isupper

.text.isxdigit  0x9d060db8       0x18
 .text.isxdigit
                0x9d060db8       0x18 d:/program files (x86)/microchip/xc32/v1.30/bin/../lib/gcc/pic32mx/4.5.2/../../../../pic32mx/lib\libc.a(ctypef.o)
                0x9d060db8                isxdigit

.rodata.f5pow.f5pow
                0x9d060dd0       0x18
 .rodata.f5pow.f5pow
                0x9d060dd0       0x18 d:/program files (x86)/microchip/xc32/v1.30/bin/../lib/gcc/pic32mx/4.5.2/../../../../pic32mx/lib\libe.a(_strtof.o)

.rodata         0x9d060de8       0x14
 .rodata        0x9d060de8       0x14 d:/program files (x86)/microchip/xc32/v1.30/bin/../lib/gcc/pic32mx/4.5.2/../../../../pic32mx/lib\libmchp_peripheral_32MX795F512L.a(I2CPrivate.o)
                0x9d060de8                i2cBase

.text.UpdateCoreTimer
                0x9d060dfc       0x10
 .text.UpdateCoreTimer
                0x9d060dfc       0x10 d:/program files (x86)/microchip/xc32/v1.30/bin/../lib/gcc/pic32mx/4.5.2/../../../../pic32mx/lib\libmchp_peripheral.a(update_core_timer_lib.o)
                0x9d060dfc                UpdateCoreTimer

.text.OpenCoreTimer
                0x9d060e0c        0xc
 .text.OpenCoreTimer
                0x9d060e0c        0xc d:/program files (x86)/microchip/xc32/v1.30/bin/../lib/gcc/pic32mx/4.5.2/../../../../pic32mx/lib\libmchp_peripheral.a(open_core_timer_lib.o)
                0x9d060e0c                OpenCoreTimer

.text.INTEnableInterrupts
                0x9d060e18        0x8
 .text.INTEnableInterrupts
                0x9d060e18        0x8 d:/program files (x86)/microchip/xc32/v1.30/bin/../lib/gcc/pic32mx/4.5.2/../../../../pic32mx/lib\libmchp_peripheral_32MX795F512L.a(int_enable_interrupts_lib.o)
                0x9d060e18                INTEnableInterrupts

.text.INTDisableInterrupts
                0x9d060e20        0x8
 .text.INTDisableInterrupts
                0x9d060e20        0x8 d:/program files (x86)/microchip/xc32/v1.30/bin/../lib/gcc/pic32mx/4.5.2/../../../../pic32mx/lib\libmchp_peripheral_32MX795F512L.a(int_disable_interrupts_lib.o)
                0x9d060e20                INTDisableInterrupts

.text._on_reset
                0x9d060e28        0x8
 .text._on_reset
                0x9d060e28        0x8 d:/program files (x86)/microchip/xc32/v1.30/bin/../lib/gcc/pic32mx/4.5.2/../../../../pic32mx/lib\libpic32.a(default-on-reset.o)
                0x9d060e28                _on_reset

.text._on_bootstrap
                0x9d060e30        0x8
 .text._on_bootstrap
                0x9d060e30        0x8 d:/program files (x86)/microchip/xc32/v1.30/bin/../lib/gcc/pic32mx/4.5.2/../../../../pic32mx/lib\libpic32.a(default-on-bootstrap.o)
                0x9d060e30                _on_bootstrap

.text.isascii   0x9d060e38        0x8
 .text.isascii  0x9d060e38        0x8 d:/program files (x86)/microchip/xc32/v1.30/bin/../lib/gcc/pic32mx/4.5.2/../../../../pic32mx/lib\libc.a(ctypef.o)
                0x9d060e38                isascii

.text.toascii   0x9d060e40        0x8
 .text.toascii  0x9d060e40        0x8 d:/program files (x86)/microchip/xc32/v1.30/bin/../lib/gcc/pic32mx/4.5.2/../../../../pic32mx/lib\libc.a(ctypef.o)
                0x9d060e40                toascii

.text._tolower  0x9d060e48        0x8
 .text._tolower
                0x9d060e48        0x8 d:/program files (x86)/microchip/xc32/v1.30/bin/../lib/gcc/pic32mx/4.5.2/../../../../pic32mx/lib\libc.a(ctypef.o)
                0x9d060e48                _tolower

.text._toupper  0x9d060e50        0x8
 .text._toupper
                0x9d060e50        0x8 d:/program files (x86)/microchip/xc32/v1.30/bin/../lib/gcc/pic32mx/4.5.2/../../../../pic32mx/lib\libc.a(ctypef.o)
                0x9d060e50                _toupper

.rodata         0x9d060e58        0x8
 .rodata        0x9d060e58        0x8 d:/program files (x86)/microchip/xc32/v1.30/bin/../lib/gcc/pic32mx/4.5.2\libgcc.a(_floatundisf.o)

.rodata         0x9d05f644        0x4
 .rodata        0x9d05f644        0x4 build/default/production/_ext/1246622842/TempDetection.o

.text%z211      0x00000000        0x0
 .text          0x00000000        0x0 d:/program files (x86)/microchip/xc32/v1.30/bin/../lib/gcc/pic32mx/4.5.2/../../../../pic32mx/lib\debug-exception-return.o

.text%z212      0x00000000        0x0
 .text          0x00000000        0x0 d:/program files (x86)/microchip/xc32/v1.30/bin/../lib/gcc/pic32mx/4.5.2/../../../../pic32mx/lib\libe.a(_ldexpf.o)

.text%z213      0x00000000        0x0
 .text          0x00000000        0x0 d:/program files (x86)/microchip/xc32/v1.30/bin/../lib/gcc/pic32mx/4.5.2/../../../../pic32mx/lib\libe.a(_strtof.o)

.text%z214      0x00000000        0x0
 .text          0x00000000        0x0 d:/program files (x86)/microchip/xc32/v1.30/bin/../lib/gcc/pic32mx/4.5.2/../../../../pic32mx/lib\libe.a(_floatdisf.o)

.text%z215      0x00000000        0x0
 .text          0x00000000        0x0 d:/program files (x86)/microchip/xc32/v1.30/bin/../lib/gcc/pic32mx/4.5.2/../../../../pic32mx/lib\libpic32.a(xc32_uart.o)

.text%z216      0x00000000        0x0
 .text          0x00000000        0x0 d:/program files (x86)/microchip/xc32/v1.30/bin/../lib/gcc/pic32mx/4.5.2/../../../../pic32mx/lib\libpic32.a(_mon_putc.o)

.text%z217      0x00000000        0x0
 .text          0x00000000        0x0 d:/program files (x86)/microchip/xc32/v1.30/bin/../lib/gcc/pic32mx/4.5.2/../../../../pic32mx/lib\libpic32.a(write.o)

.text%z218      0x00000000        0x0
 .text          0x00000000        0x0 d:/program files (x86)/microchip/xc32/v1.30/bin/../lib/gcc/pic32mx/4.5.2/../../../../pic32mx/lib\libc.a(_flsbuf_simple.o)

.text%z219      0x00000000        0x0
 .text          0x00000000        0x0 d:/program files (x86)/microchip/xc32/v1.30/bin/../lib/gcc/pic32mx/4.5.2/../../../../pic32mx/lib\libc.a(_iob.o)

.text%z220      0x00000000        0x0
 .text          0x00000000        0x0 d:/program files (x86)/microchip/xc32/v1.30/bin/../lib/gcc/pic32mx/4.5.2/../../../../pic32mx/lib\libc.a(powersf.o)

.text%z221      0x00000000        0x0
 .text          0x00000000        0x0 d:/program files (x86)/microchip/xc32/v1.30/bin/../lib/gcc/pic32mx/4.5.2/../../../../pic32mx/lib\libc.a(_fputc_simple.o)

.text%z222      0x00000000        0x0
 .text          0x00000000        0x0 d:/program files (x86)/microchip/xc32/v1.30/bin/../lib/gcc/pic32mx/4.5.2/../../../../pic32mx/lib\libc.a(doprnt.o)

.text%z223      0x00000000        0x0
 .text          0x00000000        0x0 d:/program files (x86)/microchip/xc32/v1.30/bin/../lib/gcc/pic32mx/4.5.2/../../../../pic32mx/lib\libc.a(doprnt_cdfFnopuxX.eo)

.text%z224      0x00000000        0x0
 .text          0x00000000        0x0 d:/program files (x86)/microchip/xc32/v1.30/bin/../lib/gcc/pic32mx/4.5.2/../../../../pic32mx/lib\libc.a(strtof.o)

.text%z225      0x00000000        0x0
 .text          0x00000000        0x0 d:/program files (x86)/microchip/xc32/v1.30/bin/../lib/gcc/pic32mx/4.5.2/../../../../pic32mx/lib\libc.a(strncmp.o)

.text%z226      0x00000000        0x0
 .text          0x00000000        0x0 d:/program files (x86)/microchip/xc32/v1.30/bin/../lib/gcc/pic32mx/4.5.2/../../../../pic32mx/lib\libc.a(errno.o)

.text%z227      0x00000000        0x0
 .text          0x00000000        0x0 d:/program files (x86)/microchip/xc32/v1.30/bin/../lib/gcc/pic32mx/4.5.2/../../../../pic32mx/lib\libc.a(ctypef.o)

.text%z228      0x00000000        0x0
 .text          0x00000000        0x0 d:/program files (x86)/microchip/xc32/v1.30/bin/../lib/gcc/pic32mx/4.5.2/../../../../pic32mx/lib\libc.a(vsprintf.o)

.text%z229      0x00000000        0x0
 .text          0x00000000        0x0 d:/program files (x86)/microchip/xc32/v1.30/bin/../lib/gcc/pic32mx/4.5.2/../../../../pic32mx/lib\libc.a(sprintf_cdfFnopuxX.eo)

.text%z230      0x00000000        0x0
 .text          0x00000000        0x0 d:/program files (x86)/microchip/xc32/v1.30/bin/../lib/gcc/pic32mx/4.5.2/../../../../pic32mx/lib\libc.a(atof.o)

.text%z231      0x00000000        0x0
 .text          0x00000000        0x0 d:/program files (x86)/microchip/xc32/v1.30/bin/../lib/gcc/pic32mx/4.5.2/../../../../pic32mx/lib\libc.a(strtol.o)

.text%z232      0x00000000        0x0
 .text          0x00000000        0x0 d:/program files (x86)/microchip/xc32/v1.30/bin/../lib/gcc/pic32mx/4.5.2/../../../../pic32mx/lib\libc.a(strstr.o)

.text%z233      0x00000000        0x0
 .text          0x00000000        0x0 d:/program files (x86)/microchip/xc32/v1.30/bin/../lib/gcc/pic32mx/4.5.2/../../../../pic32mx/lib\libc.a(strchr.o)

.text%z234      0x00000000        0x0
 .text          0x00000000        0x0 d:/program files (x86)/microchip/xc32/v1.30/bin/../lib/gcc/pic32mx/4.5.2/../../../../pic32mx/lib\libc.a(itoa.o)

.text%z235      0x00000000        0x0
 .text          0x00000000        0x0 d:/program files (x86)/microchip/xc32/v1.30/bin/../lib/gcc/pic32mx/4.5.2/../../../../pic32mx/lib\libc.a(ctype.o)

.text%z236      0x00000000        0x0
 .text          0x00000000        0x0 d:/program files (x86)/microchip/xc32/v1.30/bin/../lib/gcc/pic32mx/4.5.2/../../../../pic32mx/lib\libc.a(cldiv.o)

.text%z237      0x00000000        0x0
 .text          0x00000000        0x0 d:/program files (x86)/microchip/xc32/v1.30/bin/../lib/gcc/pic32mx/4.5.2/../../../../pic32mx/lib\libc.a(atoi.o)

.text%z238      0x00000000        0x0
 .text          0x00000000        0x0 d:/program files (x86)/microchip/xc32/v1.30/bin/../lib/gcc/pic32mx/4.5.2/../../../../pic32mx/lib\libpic32.a(default-general-exception-handler.o)

.text%z239      0x00000000        0x0
 .text          0x00000000        0x0 d:/program files (x86)/microchip/xc32/v1.30/bin/../lib/gcc/pic32mx/4.5.2/../../../../pic32mx/lib\libpic32.a(general-exception.o)

.text%z240      0x00000000        0x0
 .text          0x00000000        0x0 d:/program files (x86)/microchip/xc32/v1.30/bin/../lib/gcc/pic32mx/4.5.2/../../../../pic32mx/lib\libpic32.a(default-on-bootstrap.o)

.text%z241      0x00000000        0x0
 .text          0x00000000        0x0 d:/program files (x86)/microchip/xc32/v1.30/bin/../lib/gcc/pic32mx/4.5.2/../../../../pic32mx/lib\libpic32.a(default-on-reset.o)

.text%z242      0x00000000        0x0
 .text          0x00000000        0x0 d:/program files (x86)/microchip/xc32/v1.30/bin/../lib/gcc/pic32mx/4.5.2/../../../../pic32mx/lib\libpic32.a(default-bootstrap-exception-handler.o)

.text%z243      0x00000000        0x0
 .text          0x00000000        0x0 d:/program files (x86)/microchip/xc32/v1.30/bin/../lib/gcc/pic32mx/4.5.2/../../../../pic32mx/lib\libmchp_peripheral_32MX795F512L.a(I2CPrivate.o)

.text%z244      0x00000000        0x0
 .text          0x00000000        0x0 d:/program files (x86)/microchip/xc32/v1.30/bin/../lib/gcc/pic32mx/4.5.2/../../../../pic32mx/lib\libmchp_peripheral_32MX795F512L.a(I2CTransmitterIsReady.o)

.text%z245      0x00000000        0x0
 .text          0x00000000        0x0 d:/program files (x86)/microchip/xc32/v1.30/bin/../lib/gcc/pic32mx/4.5.2/../../../../pic32mx/lib\libmchp_peripheral_32MX795F512L.a(I2CTransmissionHasCompleted.o)

.text%z246      0x00000000        0x0
 .text          0x00000000        0x0 d:/program files (x86)/microchip/xc32/v1.30/bin/../lib/gcc/pic32mx/4.5.2/../../../../pic32mx/lib\libmchp_peripheral_32MX795F512L.a(I2CStop.o)

.text%z247      0x00000000        0x0
 .text          0x00000000        0x0 d:/program files (x86)/microchip/xc32/v1.30/bin/../lib/gcc/pic32mx/4.5.2/../../../../pic32mx/lib\libmchp_peripheral_32MX795F512L.a(I2CStart.o)

.text%z248      0x00000000        0x0
 .text          0x00000000        0x0 d:/program files (x86)/microchip/xc32/v1.30/bin/../lib/gcc/pic32mx/4.5.2/../../../../pic32mx/lib\libmchp_peripheral_32MX795F512L.a(I2CSetSlaveAddress.o)

.text%z249      0x00000000        0x0
 .text          0x00000000        0x0 d:/program files (x86)/microchip/xc32/v1.30/bin/../lib/gcc/pic32mx/4.5.2/../../../../pic32mx/lib\libmchp_peripheral_32MX795F512L.a(I2CSetFrequency.o)

.text%z250      0x00000000        0x0
 .text          0x00000000        0x0 d:/program files (x86)/microchip/xc32/v1.30/bin/../lib/gcc/pic32mx/4.5.2/../../../../pic32mx/lib\libmchp_peripheral_32MX795F512L.a(I2CSendByte.o)

.text%z251      0x00000000        0x0
 .text          0x00000000        0x0 d:/program files (x86)/microchip/xc32/v1.30/bin/../lib/gcc/pic32mx/4.5.2/../../../../pic32mx/lib\libmchp_peripheral_32MX795F512L.a(I2CRepeatStart.o)

.text%z252      0x00000000        0x0
 .text          0x00000000        0x0 d:/program files (x86)/microchip/xc32/v1.30/bin/../lib/gcc/pic32mx/4.5.2/../../../../pic32mx/lib\libmchp_peripheral_32MX795F512L.a(I2CReceiverEnable.o)

.text%z253      0x00000000        0x0
 .text          0x00000000        0x0 d:/program files (x86)/microchip/xc32/v1.30/bin/../lib/gcc/pic32mx/4.5.2/../../../../pic32mx/lib\libmchp_peripheral_32MX795F512L.a(I2CReceivedDataIsAvailable.o)

.text%z254      0x00000000        0x0
 .text          0x00000000        0x0 d:/program files (x86)/microchip/xc32/v1.30/bin/../lib/gcc/pic32mx/4.5.2/../../../../pic32mx/lib\libmchp_peripheral_32MX795F512L.a(I2CGetStatus.o)

.text%z255      0x00000000        0x0
 .text          0x00000000        0x0 d:/program files (x86)/microchip/xc32/v1.30/bin/../lib/gcc/pic32mx/4.5.2/../../../../pic32mx/lib\libmchp_peripheral_32MX795F512L.a(I2CGetByte.o)

.text%z256      0x00000000        0x0
 .text          0x00000000        0x0 d:/program files (x86)/microchip/xc32/v1.30/bin/../lib/gcc/pic32mx/4.5.2/../../../../pic32mx/lib\libmchp_peripheral_32MX795F512L.a(I2CEnable.o)

.text%z257      0x00000000        0x0
 .text          0x00000000        0x0 d:/program files (x86)/microchip/xc32/v1.30/bin/../lib/gcc/pic32mx/4.5.2/../../../../pic32mx/lib\libmchp_peripheral_32MX795F512L.a(I2CConfigure.o)

.text%z258      0x00000000        0x0
 .text          0x00000000        0x0 d:/program files (x86)/microchip/xc32/v1.30/bin/../lib/gcc/pic32mx/4.5.2/../../../../pic32mx/lib\libmchp_peripheral_32MX795F512L.a(I2CByteWasAcknowledged.o)

.text%z259      0x00000000        0x0
 .text          0x00000000        0x0 d:/program files (x86)/microchip/xc32/v1.30/bin/../lib/gcc/pic32mx/4.5.2/../../../../pic32mx/lib\libmchp_peripheral_32MX795F512L.a(I2CBusIsIdle.o)

.text%z260      0x00000000        0x0
 .text          0x00000000        0x0 d:/program files (x86)/microchip/xc32/v1.30/bin/../lib/gcc/pic32mx/4.5.2/../../../../pic32mx/lib\libmchp_peripheral_32MX795F512L.a(master_write_i2c2_lib_legacy.o)

.text%z261      0x00000000        0x0
 .text          0x00000000        0x0 d:/program files (x86)/microchip/xc32/v1.30/bin/../lib/gcc/pic32mx/4.5.2/../../../../pic32mx/lib\libmchp_peripheral_32MX795F512L.a(master_read_i2c2_lib_legacy.o)

.text%z262      0x00000000        0x0
 .text          0x00000000        0x0 d:/program files (x86)/microchip/xc32/v1.30/bin/../lib/gcc/pic32mx/4.5.2/../../../../pic32mx/lib\libmchp_peripheral_32MX795F512L.a(idle_i2c2_lib_legacy.o)

.text%z263      0x00000000        0x0
 .text          0x00000000        0x0 d:/program files (x86)/microchip/xc32/v1.30/bin/../lib/gcc/pic32mx/4.5.2/../../../../pic32mx/lib\libmchp_peripheral_32MX795F512L.a(uart_lib.o)

.text%z264      0x00000000        0x0
 .text          0x00000000        0x0 d:/program files (x86)/microchip/xc32/v1.30/bin/../lib/gcc/pic32mx/4.5.2/../../../../pic32mx/lib\libmchp_peripheral_32MX795F512L.a(_ports_tbl_libp.o)

.text%z265      0x00000000        0x0
 .text          0x00000000        0x0 d:/program files (x86)/microchip/xc32/v1.30/bin/../lib/gcc/pic32mx/4.5.2/../../../../pic32mx/lib\libmchp_peripheral_32MX795F512L.a(port_set_pins_digital_out_lib.o)

.text%z266      0x00000000        0x0
 .text          0x00000000        0x0 d:/program files (x86)/microchip/xc32/v1.30/bin/../lib/gcc/pic32mx/4.5.2/../../../../pic32mx/lib\libmchp_peripheral_32MX795F512L.a(port_set_pins_digital_in_lib.o)

.text%z267      0x00000000        0x0
 .text          0x00000000        0x0 d:/program files (x86)/microchip/xc32/v1.30/bin/../lib/gcc/pic32mx/4.5.2/../../../../pic32mx/lib\libmchp_peripheral_32MX795F512L.a(int_tbl_lib.o)

.text%z268      0x00000000        0x0
 .text          0x00000000        0x0 d:/program files (x86)/microchip/xc32/v1.30/bin/../lib/gcc/pic32mx/4.5.2/../../../../pic32mx/lib\libmchp_peripheral_32MX795F512L.a(int_restore_interrupts_lib.o)

.text%z269      0x00000000        0x0
 .text          0x00000000        0x0 d:/program files (x86)/microchip/xc32/v1.30/bin/../lib/gcc/pic32mx/4.5.2/../../../../pic32mx/lib\libmchp_peripheral_32MX795F512L.a(int_disable_interrupts_lib.o)

.text%z270      0x00000000        0x0
 .text          0x00000000        0x0 d:/program files (x86)/microchip/xc32/v1.30/bin/../lib/gcc/pic32mx/4.5.2/../../../../pic32mx/lib\libmchp_peripheral_32MX795F512L.a(int_enable_interrupts_lib.o)

.text%z271      0x00000000        0x0
 .text          0x00000000        0x0 d:/program files (x86)/microchip/xc32/v1.30/bin/../lib/gcc/pic32mx/4.5.2/../../../../pic32mx/lib\libmchp_peripheral_32MX795F512L.a(int_configure_system_lib.o)

.text%z272      0x00000000        0x0
 .text          0x00000000        0x0 d:/program files (x86)/microchip/xc32/v1.30/bin/../lib/gcc/pic32mx/4.5.2/../../../../pic32mx/lib\libmchp_peripheral_32MX795F512L.a(pcache.o)

.text%z273      0x00000000        0x0
 .text          0x00000000        0x0 d:/program files (x86)/microchip/xc32/v1.30/bin/../lib/gcc/pic32mx/4.5.2/../../../../pic32mx/lib\libmchp_peripheral.a(update_core_timer_lib.o)

.text%z274      0x00000000        0x0
 .text          0x00000000        0x0 d:/program files (x86)/microchip/xc32/v1.30/bin/../lib/gcc/pic32mx/4.5.2/../../../../pic32mx/lib\libmchp_peripheral.a(open_core_timer_lib.o)

.text%z275      0x00000000        0x0
 .text          0x00000000        0x0 d:/program files (x86)/microchip/xc32/v1.30/bin/../lib/gcc/pic32mx/4.5.2/../../../../pic32mx/lib/./proc/32MX795F512L\processor.o

.text%z276      0x00000000        0x0
 .text          0x00000000        0x0 build/default/production/_ext/1246622842/25vfxxx.o

.text%z277      0x00000000        0x0
 .text          0x00000000        0x0 d:/program files (x86)/microchip/xc32/v1.30/bin/../lib/gcc/pic32mx/4.5.2/../../../../pic32mx/lib/./proc/32MX795F512L/crt0_mips32r2.o
